ARM GAS  C:\Users\Abhinav\AppData\Local\Temp\cc3ESLnv.s 			page 1


   1              		.cpu cortex-m3
   2              		.arch armv7-m
   3              		.fpu softvfp
   4              		.eabi_attribute 20, 1
   5              		.eabi_attribute 21, 1
   6              		.eabi_attribute 23, 3
   7              		.eabi_attribute 24, 1
   8              		.eabi_attribute 25, 1
   9              		.eabi_attribute 26, 1
  10              		.eabi_attribute 30, 1
  11              		.eabi_attribute 34, 1
  12              		.eabi_attribute 18, 4
  13              		.file	"event_groups.c"
  14              		.text
  15              	.Ltext0:
  16              		.cfi_sections	.debug_frame
  17              		.file 1 "Middlewares/Third_Party/FreeRTOS/Source/event_groups.c"
  18              		.section	.text.prvTestWaitCondition,"ax",%progbits
  19              		.align	1
  20              		.syntax unified
  21              		.thumb
  22              		.thumb_func
  24              	prvTestWaitCondition:
  25              	.LVL0:
  26              	.LFB15:
   1:Middlewares/Third_Party/FreeRTOS/Source/event_groups.c **** /*
   2:Middlewares/Third_Party/FreeRTOS/Source/event_groups.c ****  * FreeRTOS Kernel V10.0.1
   3:Middlewares/Third_Party/FreeRTOS/Source/event_groups.c ****  * Copyright (C) 2017 Amazon.com, Inc. or its affiliates.  All Rights Reserved.
   4:Middlewares/Third_Party/FreeRTOS/Source/event_groups.c ****  *
   5:Middlewares/Third_Party/FreeRTOS/Source/event_groups.c ****  * Permission is hereby granted, free of charge, to any person obtaining a copy of
   6:Middlewares/Third_Party/FreeRTOS/Source/event_groups.c ****  * this software and associated documentation files (the "Software"), to deal in
   7:Middlewares/Third_Party/FreeRTOS/Source/event_groups.c ****  * the Software without restriction, including without limitation the rights to
   8:Middlewares/Third_Party/FreeRTOS/Source/event_groups.c ****  * use, copy, modify, merge, publish, distribute, sublicense, and/or sell copies of
   9:Middlewares/Third_Party/FreeRTOS/Source/event_groups.c ****  * the Software, and to permit persons to whom the Software is furnished to do so,
  10:Middlewares/Third_Party/FreeRTOS/Source/event_groups.c ****  * subject to the following conditions:
  11:Middlewares/Third_Party/FreeRTOS/Source/event_groups.c ****  *
  12:Middlewares/Third_Party/FreeRTOS/Source/event_groups.c ****  * The above copyright notice and this permission notice shall be included in all
  13:Middlewares/Third_Party/FreeRTOS/Source/event_groups.c ****  * copies or substantial portions of the Software.
  14:Middlewares/Third_Party/FreeRTOS/Source/event_groups.c ****  *
  15:Middlewares/Third_Party/FreeRTOS/Source/event_groups.c ****  * THE SOFTWARE IS PROVIDED "AS IS", WITHOUT WARRANTY OF ANY KIND, EXPRESS OR
  16:Middlewares/Third_Party/FreeRTOS/Source/event_groups.c ****  * IMPLIED, INCLUDING BUT NOT LIMITED TO THE WARRANTIES OF MERCHANTABILITY, FITNESS
  17:Middlewares/Third_Party/FreeRTOS/Source/event_groups.c ****  * FOR A PARTICULAR PURPOSE AND NONINFRINGEMENT. IN NO EVENT SHALL THE AUTHORS OR
  18:Middlewares/Third_Party/FreeRTOS/Source/event_groups.c ****  * COPYRIGHT HOLDERS BE LIABLE FOR ANY CLAIM, DAMAGES OR OTHER LIABILITY, WHETHER
  19:Middlewares/Third_Party/FreeRTOS/Source/event_groups.c ****  * IN AN ACTION OF CONTRACT, TORT OR OTHERWISE, ARISING FROM, OUT OF OR IN
  20:Middlewares/Third_Party/FreeRTOS/Source/event_groups.c ****  * CONNECTION WITH THE SOFTWARE OR THE USE OR OTHER DEALINGS IN THE SOFTWARE.
  21:Middlewares/Third_Party/FreeRTOS/Source/event_groups.c ****  *
  22:Middlewares/Third_Party/FreeRTOS/Source/event_groups.c ****  * http://www.FreeRTOS.org
  23:Middlewares/Third_Party/FreeRTOS/Source/event_groups.c ****  * http://aws.amazon.com/freertos
  24:Middlewares/Third_Party/FreeRTOS/Source/event_groups.c ****  *
  25:Middlewares/Third_Party/FreeRTOS/Source/event_groups.c ****  * 1 tab == 4 spaces!
  26:Middlewares/Third_Party/FreeRTOS/Source/event_groups.c ****  */
  27:Middlewares/Third_Party/FreeRTOS/Source/event_groups.c **** 
  28:Middlewares/Third_Party/FreeRTOS/Source/event_groups.c **** /* Standard includes. */
  29:Middlewares/Third_Party/FreeRTOS/Source/event_groups.c **** #include <stdlib.h>
  30:Middlewares/Third_Party/FreeRTOS/Source/event_groups.c **** 
  31:Middlewares/Third_Party/FreeRTOS/Source/event_groups.c **** /* Defining MPU_WRAPPERS_INCLUDED_FROM_API_FILE prevents task.h from redefining
  32:Middlewares/Third_Party/FreeRTOS/Source/event_groups.c **** all the API functions to use the MPU wrappers.  That should only be done when
ARM GAS  C:\Users\Abhinav\AppData\Local\Temp\cc3ESLnv.s 			page 2


  33:Middlewares/Third_Party/FreeRTOS/Source/event_groups.c **** task.h is included from an application file. */
  34:Middlewares/Third_Party/FreeRTOS/Source/event_groups.c **** #define MPU_WRAPPERS_INCLUDED_FROM_API_FILE
  35:Middlewares/Third_Party/FreeRTOS/Source/event_groups.c **** 
  36:Middlewares/Third_Party/FreeRTOS/Source/event_groups.c **** /* FreeRTOS includes. */
  37:Middlewares/Third_Party/FreeRTOS/Source/event_groups.c **** #include "FreeRTOS.h"
  38:Middlewares/Third_Party/FreeRTOS/Source/event_groups.c **** #include "task.h"
  39:Middlewares/Third_Party/FreeRTOS/Source/event_groups.c **** #include "timers.h"
  40:Middlewares/Third_Party/FreeRTOS/Source/event_groups.c **** #include "event_groups.h"
  41:Middlewares/Third_Party/FreeRTOS/Source/event_groups.c **** 
  42:Middlewares/Third_Party/FreeRTOS/Source/event_groups.c **** /* Lint e961 and e750 are suppressed as a MISRA exception justified because the
  43:Middlewares/Third_Party/FreeRTOS/Source/event_groups.c **** MPU ports require MPU_WRAPPERS_INCLUDED_FROM_API_FILE to be defined for the
  44:Middlewares/Third_Party/FreeRTOS/Source/event_groups.c **** header files above, but not in this file, in order to generate the correct
  45:Middlewares/Third_Party/FreeRTOS/Source/event_groups.c **** privileged Vs unprivileged linkage and placement. */
  46:Middlewares/Third_Party/FreeRTOS/Source/event_groups.c **** #undef MPU_WRAPPERS_INCLUDED_FROM_API_FILE /*lint !e961 !e750. */
  47:Middlewares/Third_Party/FreeRTOS/Source/event_groups.c **** 
  48:Middlewares/Third_Party/FreeRTOS/Source/event_groups.c **** /* The following bit fields convey control information in a task's event list
  49:Middlewares/Third_Party/FreeRTOS/Source/event_groups.c **** item value.  It is important they don't clash with the
  50:Middlewares/Third_Party/FreeRTOS/Source/event_groups.c **** taskEVENT_LIST_ITEM_VALUE_IN_USE definition. */
  51:Middlewares/Third_Party/FreeRTOS/Source/event_groups.c **** #if configUSE_16_BIT_TICKS == 1
  52:Middlewares/Third_Party/FreeRTOS/Source/event_groups.c **** 	#define eventCLEAR_EVENTS_ON_EXIT_BIT	0x0100U
  53:Middlewares/Third_Party/FreeRTOS/Source/event_groups.c **** 	#define eventUNBLOCKED_DUE_TO_BIT_SET	0x0200U
  54:Middlewares/Third_Party/FreeRTOS/Source/event_groups.c **** 	#define eventWAIT_FOR_ALL_BITS			0x0400U
  55:Middlewares/Third_Party/FreeRTOS/Source/event_groups.c **** 	#define eventEVENT_BITS_CONTROL_BYTES	0xff00U
  56:Middlewares/Third_Party/FreeRTOS/Source/event_groups.c **** #else
  57:Middlewares/Third_Party/FreeRTOS/Source/event_groups.c **** 	#define eventCLEAR_EVENTS_ON_EXIT_BIT	0x01000000UL
  58:Middlewares/Third_Party/FreeRTOS/Source/event_groups.c **** 	#define eventUNBLOCKED_DUE_TO_BIT_SET	0x02000000UL
  59:Middlewares/Third_Party/FreeRTOS/Source/event_groups.c **** 	#define eventWAIT_FOR_ALL_BITS			0x04000000UL
  60:Middlewares/Third_Party/FreeRTOS/Source/event_groups.c **** 	#define eventEVENT_BITS_CONTROL_BYTES	0xff000000UL
  61:Middlewares/Third_Party/FreeRTOS/Source/event_groups.c **** #endif
  62:Middlewares/Third_Party/FreeRTOS/Source/event_groups.c **** 
  63:Middlewares/Third_Party/FreeRTOS/Source/event_groups.c **** typedef struct xEventGroupDefinition
  64:Middlewares/Third_Party/FreeRTOS/Source/event_groups.c **** {
  65:Middlewares/Third_Party/FreeRTOS/Source/event_groups.c **** 	EventBits_t uxEventBits;
  66:Middlewares/Third_Party/FreeRTOS/Source/event_groups.c **** 	List_t xTasksWaitingForBits;		/*< List of tasks waiting for a bit to be set. */
  67:Middlewares/Third_Party/FreeRTOS/Source/event_groups.c **** 
  68:Middlewares/Third_Party/FreeRTOS/Source/event_groups.c **** 	#if( configUSE_TRACE_FACILITY == 1 )
  69:Middlewares/Third_Party/FreeRTOS/Source/event_groups.c **** 		UBaseType_t uxEventGroupNumber;
  70:Middlewares/Third_Party/FreeRTOS/Source/event_groups.c **** 	#endif
  71:Middlewares/Third_Party/FreeRTOS/Source/event_groups.c **** 
  72:Middlewares/Third_Party/FreeRTOS/Source/event_groups.c **** 	#if( ( configSUPPORT_STATIC_ALLOCATION == 1 ) && ( configSUPPORT_DYNAMIC_ALLOCATION == 1 ) )
  73:Middlewares/Third_Party/FreeRTOS/Source/event_groups.c **** 		uint8_t ucStaticallyAllocated; /*< Set to pdTRUE if the event group is statically allocated to en
  74:Middlewares/Third_Party/FreeRTOS/Source/event_groups.c **** 	#endif
  75:Middlewares/Third_Party/FreeRTOS/Source/event_groups.c **** } EventGroup_t;
  76:Middlewares/Third_Party/FreeRTOS/Source/event_groups.c **** 
  77:Middlewares/Third_Party/FreeRTOS/Source/event_groups.c **** /*-----------------------------------------------------------*/
  78:Middlewares/Third_Party/FreeRTOS/Source/event_groups.c **** 
  79:Middlewares/Third_Party/FreeRTOS/Source/event_groups.c **** /*
  80:Middlewares/Third_Party/FreeRTOS/Source/event_groups.c ****  * Test the bits set in uxCurrentEventBits to see if the wait condition is met.
  81:Middlewares/Third_Party/FreeRTOS/Source/event_groups.c ****  * The wait condition is defined by xWaitForAllBits.  If xWaitForAllBits is
  82:Middlewares/Third_Party/FreeRTOS/Source/event_groups.c ****  * pdTRUE then the wait condition is met if all the bits set in uxBitsToWaitFor
  83:Middlewares/Third_Party/FreeRTOS/Source/event_groups.c ****  * are also set in uxCurrentEventBits.  If xWaitForAllBits is pdFALSE then the
  84:Middlewares/Third_Party/FreeRTOS/Source/event_groups.c ****  * wait condition is met if any of the bits set in uxBitsToWait for are also set
  85:Middlewares/Third_Party/FreeRTOS/Source/event_groups.c ****  * in uxCurrentEventBits.
  86:Middlewares/Third_Party/FreeRTOS/Source/event_groups.c ****  */
  87:Middlewares/Third_Party/FreeRTOS/Source/event_groups.c **** static BaseType_t prvTestWaitCondition( const EventBits_t uxCurrentEventBits, const EventBits_t uxB
  88:Middlewares/Third_Party/FreeRTOS/Source/event_groups.c **** 
  89:Middlewares/Third_Party/FreeRTOS/Source/event_groups.c **** /*-----------------------------------------------------------*/
ARM GAS  C:\Users\Abhinav\AppData\Local\Temp\cc3ESLnv.s 			page 3


  90:Middlewares/Third_Party/FreeRTOS/Source/event_groups.c **** 
  91:Middlewares/Third_Party/FreeRTOS/Source/event_groups.c **** #if( configSUPPORT_STATIC_ALLOCATION == 1 )
  92:Middlewares/Third_Party/FreeRTOS/Source/event_groups.c **** 
  93:Middlewares/Third_Party/FreeRTOS/Source/event_groups.c **** 	EventGroupHandle_t xEventGroupCreateStatic( StaticEventGroup_t *pxEventGroupBuffer )
  94:Middlewares/Third_Party/FreeRTOS/Source/event_groups.c **** 	{
  95:Middlewares/Third_Party/FreeRTOS/Source/event_groups.c **** 	EventGroup_t *pxEventBits;
  96:Middlewares/Third_Party/FreeRTOS/Source/event_groups.c **** 
  97:Middlewares/Third_Party/FreeRTOS/Source/event_groups.c **** 		/* A StaticEventGroup_t object must be provided. */
  98:Middlewares/Third_Party/FreeRTOS/Source/event_groups.c **** 		configASSERT( pxEventGroupBuffer );
  99:Middlewares/Third_Party/FreeRTOS/Source/event_groups.c **** 
 100:Middlewares/Third_Party/FreeRTOS/Source/event_groups.c **** 		#if( configASSERT_DEFINED == 1 )
 101:Middlewares/Third_Party/FreeRTOS/Source/event_groups.c **** 		{
 102:Middlewares/Third_Party/FreeRTOS/Source/event_groups.c **** 			/* Sanity check that the size of the structure used to declare a
 103:Middlewares/Third_Party/FreeRTOS/Source/event_groups.c **** 			variable of type StaticEventGroup_t equals the size of the real
 104:Middlewares/Third_Party/FreeRTOS/Source/event_groups.c **** 			event group structure. */
 105:Middlewares/Third_Party/FreeRTOS/Source/event_groups.c **** 			volatile size_t xSize = sizeof( StaticEventGroup_t );
 106:Middlewares/Third_Party/FreeRTOS/Source/event_groups.c **** 			configASSERT( xSize == sizeof( EventGroup_t ) );
 107:Middlewares/Third_Party/FreeRTOS/Source/event_groups.c **** 		}
 108:Middlewares/Third_Party/FreeRTOS/Source/event_groups.c **** 		#endif /* configASSERT_DEFINED */
 109:Middlewares/Third_Party/FreeRTOS/Source/event_groups.c **** 
 110:Middlewares/Third_Party/FreeRTOS/Source/event_groups.c **** 		/* The user has provided a statically allocated event group - use it. */
 111:Middlewares/Third_Party/FreeRTOS/Source/event_groups.c **** 		pxEventBits = ( EventGroup_t * ) pxEventGroupBuffer; /*lint !e740 EventGroup_t and StaticEventGro
 112:Middlewares/Third_Party/FreeRTOS/Source/event_groups.c **** 
 113:Middlewares/Third_Party/FreeRTOS/Source/event_groups.c **** 		if( pxEventBits != NULL )
 114:Middlewares/Third_Party/FreeRTOS/Source/event_groups.c **** 		{
 115:Middlewares/Third_Party/FreeRTOS/Source/event_groups.c **** 			pxEventBits->uxEventBits = 0;
 116:Middlewares/Third_Party/FreeRTOS/Source/event_groups.c **** 			vListInitialise( &( pxEventBits->xTasksWaitingForBits ) );
 117:Middlewares/Third_Party/FreeRTOS/Source/event_groups.c **** 
 118:Middlewares/Third_Party/FreeRTOS/Source/event_groups.c **** 			#if( configSUPPORT_DYNAMIC_ALLOCATION == 1 )
 119:Middlewares/Third_Party/FreeRTOS/Source/event_groups.c **** 			{
 120:Middlewares/Third_Party/FreeRTOS/Source/event_groups.c **** 				/* Both static and dynamic allocation can be used, so note that
 121:Middlewares/Third_Party/FreeRTOS/Source/event_groups.c **** 				this event group was created statically in case the event group
 122:Middlewares/Third_Party/FreeRTOS/Source/event_groups.c **** 				is later deleted. */
 123:Middlewares/Third_Party/FreeRTOS/Source/event_groups.c **** 				pxEventBits->ucStaticallyAllocated = pdTRUE;
 124:Middlewares/Third_Party/FreeRTOS/Source/event_groups.c **** 			}
 125:Middlewares/Third_Party/FreeRTOS/Source/event_groups.c **** 			#endif /* configSUPPORT_DYNAMIC_ALLOCATION */
 126:Middlewares/Third_Party/FreeRTOS/Source/event_groups.c **** 
 127:Middlewares/Third_Party/FreeRTOS/Source/event_groups.c **** 			traceEVENT_GROUP_CREATE( pxEventBits );
 128:Middlewares/Third_Party/FreeRTOS/Source/event_groups.c **** 		}
 129:Middlewares/Third_Party/FreeRTOS/Source/event_groups.c **** 		else
 130:Middlewares/Third_Party/FreeRTOS/Source/event_groups.c **** 		{
 131:Middlewares/Third_Party/FreeRTOS/Source/event_groups.c **** 			traceEVENT_GROUP_CREATE_FAILED();
 132:Middlewares/Third_Party/FreeRTOS/Source/event_groups.c **** 		}
 133:Middlewares/Third_Party/FreeRTOS/Source/event_groups.c **** 
 134:Middlewares/Third_Party/FreeRTOS/Source/event_groups.c **** 		return ( EventGroupHandle_t ) pxEventBits;
 135:Middlewares/Third_Party/FreeRTOS/Source/event_groups.c **** 	}
 136:Middlewares/Third_Party/FreeRTOS/Source/event_groups.c **** 
 137:Middlewares/Third_Party/FreeRTOS/Source/event_groups.c **** #endif /* configSUPPORT_STATIC_ALLOCATION */
 138:Middlewares/Third_Party/FreeRTOS/Source/event_groups.c **** /*-----------------------------------------------------------*/
 139:Middlewares/Third_Party/FreeRTOS/Source/event_groups.c **** 
 140:Middlewares/Third_Party/FreeRTOS/Source/event_groups.c **** #if( configSUPPORT_DYNAMIC_ALLOCATION == 1 )
 141:Middlewares/Third_Party/FreeRTOS/Source/event_groups.c **** 
 142:Middlewares/Third_Party/FreeRTOS/Source/event_groups.c **** 	EventGroupHandle_t xEventGroupCreate( void )
 143:Middlewares/Third_Party/FreeRTOS/Source/event_groups.c **** 	{
 144:Middlewares/Third_Party/FreeRTOS/Source/event_groups.c **** 	EventGroup_t *pxEventBits;
 145:Middlewares/Third_Party/FreeRTOS/Source/event_groups.c **** 
 146:Middlewares/Third_Party/FreeRTOS/Source/event_groups.c **** 		/* Allocate the event group. */
ARM GAS  C:\Users\Abhinav\AppData\Local\Temp\cc3ESLnv.s 			page 4


 147:Middlewares/Third_Party/FreeRTOS/Source/event_groups.c **** 		pxEventBits = ( EventGroup_t * ) pvPortMalloc( sizeof( EventGroup_t ) );
 148:Middlewares/Third_Party/FreeRTOS/Source/event_groups.c **** 
 149:Middlewares/Third_Party/FreeRTOS/Source/event_groups.c **** 		if( pxEventBits != NULL )
 150:Middlewares/Third_Party/FreeRTOS/Source/event_groups.c **** 		{
 151:Middlewares/Third_Party/FreeRTOS/Source/event_groups.c **** 			pxEventBits->uxEventBits = 0;
 152:Middlewares/Third_Party/FreeRTOS/Source/event_groups.c **** 			vListInitialise( &( pxEventBits->xTasksWaitingForBits ) );
 153:Middlewares/Third_Party/FreeRTOS/Source/event_groups.c **** 
 154:Middlewares/Third_Party/FreeRTOS/Source/event_groups.c **** 			#if( configSUPPORT_STATIC_ALLOCATION == 1 )
 155:Middlewares/Third_Party/FreeRTOS/Source/event_groups.c **** 			{
 156:Middlewares/Third_Party/FreeRTOS/Source/event_groups.c **** 				/* Both static and dynamic allocation can be used, so note this
 157:Middlewares/Third_Party/FreeRTOS/Source/event_groups.c **** 				event group was allocated statically in case the event group is
 158:Middlewares/Third_Party/FreeRTOS/Source/event_groups.c **** 				later deleted. */
 159:Middlewares/Third_Party/FreeRTOS/Source/event_groups.c **** 				pxEventBits->ucStaticallyAllocated = pdFALSE;
 160:Middlewares/Third_Party/FreeRTOS/Source/event_groups.c **** 			}
 161:Middlewares/Third_Party/FreeRTOS/Source/event_groups.c **** 			#endif /* configSUPPORT_STATIC_ALLOCATION */
 162:Middlewares/Third_Party/FreeRTOS/Source/event_groups.c **** 
 163:Middlewares/Third_Party/FreeRTOS/Source/event_groups.c **** 			traceEVENT_GROUP_CREATE( pxEventBits );
 164:Middlewares/Third_Party/FreeRTOS/Source/event_groups.c **** 		}
 165:Middlewares/Third_Party/FreeRTOS/Source/event_groups.c **** 		else
 166:Middlewares/Third_Party/FreeRTOS/Source/event_groups.c **** 		{
 167:Middlewares/Third_Party/FreeRTOS/Source/event_groups.c **** 			traceEVENT_GROUP_CREATE_FAILED();
 168:Middlewares/Third_Party/FreeRTOS/Source/event_groups.c **** 		}
 169:Middlewares/Third_Party/FreeRTOS/Source/event_groups.c **** 
 170:Middlewares/Third_Party/FreeRTOS/Source/event_groups.c **** 		return ( EventGroupHandle_t ) pxEventBits;
 171:Middlewares/Third_Party/FreeRTOS/Source/event_groups.c **** 	}
 172:Middlewares/Third_Party/FreeRTOS/Source/event_groups.c **** 
 173:Middlewares/Third_Party/FreeRTOS/Source/event_groups.c **** #endif /* configSUPPORT_DYNAMIC_ALLOCATION */
 174:Middlewares/Third_Party/FreeRTOS/Source/event_groups.c **** /*-----------------------------------------------------------*/
 175:Middlewares/Third_Party/FreeRTOS/Source/event_groups.c **** 
 176:Middlewares/Third_Party/FreeRTOS/Source/event_groups.c **** EventBits_t xEventGroupSync( EventGroupHandle_t xEventGroup, const EventBits_t uxBitsToSet, const E
 177:Middlewares/Third_Party/FreeRTOS/Source/event_groups.c **** {
 178:Middlewares/Third_Party/FreeRTOS/Source/event_groups.c **** EventBits_t uxOriginalBitValue, uxReturn;
 179:Middlewares/Third_Party/FreeRTOS/Source/event_groups.c **** EventGroup_t *pxEventBits = ( EventGroup_t * ) xEventGroup;
 180:Middlewares/Third_Party/FreeRTOS/Source/event_groups.c **** BaseType_t xAlreadyYielded;
 181:Middlewares/Third_Party/FreeRTOS/Source/event_groups.c **** BaseType_t xTimeoutOccurred = pdFALSE;
 182:Middlewares/Third_Party/FreeRTOS/Source/event_groups.c **** 
 183:Middlewares/Third_Party/FreeRTOS/Source/event_groups.c **** 	configASSERT( ( uxBitsToWaitFor & eventEVENT_BITS_CONTROL_BYTES ) == 0 );
 184:Middlewares/Third_Party/FreeRTOS/Source/event_groups.c **** 	configASSERT( uxBitsToWaitFor != 0 );
 185:Middlewares/Third_Party/FreeRTOS/Source/event_groups.c **** 	#if ( ( INCLUDE_xTaskGetSchedulerState == 1 ) || ( configUSE_TIMERS == 1 ) )
 186:Middlewares/Third_Party/FreeRTOS/Source/event_groups.c **** 	{
 187:Middlewares/Third_Party/FreeRTOS/Source/event_groups.c **** 		configASSERT( !( ( xTaskGetSchedulerState() == taskSCHEDULER_SUSPENDED ) && ( xTicksToWait != 0 )
 188:Middlewares/Third_Party/FreeRTOS/Source/event_groups.c **** 	}
 189:Middlewares/Third_Party/FreeRTOS/Source/event_groups.c **** 	#endif
 190:Middlewares/Third_Party/FreeRTOS/Source/event_groups.c **** 
 191:Middlewares/Third_Party/FreeRTOS/Source/event_groups.c **** 	vTaskSuspendAll();
 192:Middlewares/Third_Party/FreeRTOS/Source/event_groups.c **** 	{
 193:Middlewares/Third_Party/FreeRTOS/Source/event_groups.c **** 		uxOriginalBitValue = pxEventBits->uxEventBits;
 194:Middlewares/Third_Party/FreeRTOS/Source/event_groups.c **** 
 195:Middlewares/Third_Party/FreeRTOS/Source/event_groups.c **** 		( void ) xEventGroupSetBits( xEventGroup, uxBitsToSet );
 196:Middlewares/Third_Party/FreeRTOS/Source/event_groups.c **** 
 197:Middlewares/Third_Party/FreeRTOS/Source/event_groups.c **** 		if( ( ( uxOriginalBitValue | uxBitsToSet ) & uxBitsToWaitFor ) == uxBitsToWaitFor )
 198:Middlewares/Third_Party/FreeRTOS/Source/event_groups.c **** 		{
 199:Middlewares/Third_Party/FreeRTOS/Source/event_groups.c **** 			/* All the rendezvous bits are now set - no need to block. */
 200:Middlewares/Third_Party/FreeRTOS/Source/event_groups.c **** 			uxReturn = ( uxOriginalBitValue | uxBitsToSet );
 201:Middlewares/Third_Party/FreeRTOS/Source/event_groups.c **** 
 202:Middlewares/Third_Party/FreeRTOS/Source/event_groups.c **** 			/* Rendezvous always clear the bits.  They will have been cleared
 203:Middlewares/Third_Party/FreeRTOS/Source/event_groups.c **** 			already unless this is the only task in the rendezvous. */
ARM GAS  C:\Users\Abhinav\AppData\Local\Temp\cc3ESLnv.s 			page 5


 204:Middlewares/Third_Party/FreeRTOS/Source/event_groups.c **** 			pxEventBits->uxEventBits &= ~uxBitsToWaitFor;
 205:Middlewares/Third_Party/FreeRTOS/Source/event_groups.c **** 
 206:Middlewares/Third_Party/FreeRTOS/Source/event_groups.c **** 			xTicksToWait = 0;
 207:Middlewares/Third_Party/FreeRTOS/Source/event_groups.c **** 		}
 208:Middlewares/Third_Party/FreeRTOS/Source/event_groups.c **** 		else
 209:Middlewares/Third_Party/FreeRTOS/Source/event_groups.c **** 		{
 210:Middlewares/Third_Party/FreeRTOS/Source/event_groups.c **** 			if( xTicksToWait != ( TickType_t ) 0 )
 211:Middlewares/Third_Party/FreeRTOS/Source/event_groups.c **** 			{
 212:Middlewares/Third_Party/FreeRTOS/Source/event_groups.c **** 				traceEVENT_GROUP_SYNC_BLOCK( xEventGroup, uxBitsToSet, uxBitsToWaitFor );
 213:Middlewares/Third_Party/FreeRTOS/Source/event_groups.c **** 
 214:Middlewares/Third_Party/FreeRTOS/Source/event_groups.c **** 				/* Store the bits that the calling task is waiting for in the
 215:Middlewares/Third_Party/FreeRTOS/Source/event_groups.c **** 				task's event list item so the kernel knows when a match is
 216:Middlewares/Third_Party/FreeRTOS/Source/event_groups.c **** 				found.  Then enter the blocked state. */
 217:Middlewares/Third_Party/FreeRTOS/Source/event_groups.c **** 				vTaskPlaceOnUnorderedEventList( &( pxEventBits->xTasksWaitingForBits ), ( uxBitsToWaitFor | eve
 218:Middlewares/Third_Party/FreeRTOS/Source/event_groups.c **** 
 219:Middlewares/Third_Party/FreeRTOS/Source/event_groups.c **** 				/* This assignment is obsolete as uxReturn will get set after
 220:Middlewares/Third_Party/FreeRTOS/Source/event_groups.c **** 				the task unblocks, but some compilers mistakenly generate a
 221:Middlewares/Third_Party/FreeRTOS/Source/event_groups.c **** 				warning about uxReturn being returned without being set if the
 222:Middlewares/Third_Party/FreeRTOS/Source/event_groups.c **** 				assignment is omitted. */
 223:Middlewares/Third_Party/FreeRTOS/Source/event_groups.c **** 				uxReturn = 0;
 224:Middlewares/Third_Party/FreeRTOS/Source/event_groups.c **** 			}
 225:Middlewares/Third_Party/FreeRTOS/Source/event_groups.c **** 			else
 226:Middlewares/Third_Party/FreeRTOS/Source/event_groups.c **** 			{
 227:Middlewares/Third_Party/FreeRTOS/Source/event_groups.c **** 				/* The rendezvous bits were not set, but no block time was
 228:Middlewares/Third_Party/FreeRTOS/Source/event_groups.c **** 				specified - just return the current event bit value. */
 229:Middlewares/Third_Party/FreeRTOS/Source/event_groups.c **** 				uxReturn = pxEventBits->uxEventBits;
 230:Middlewares/Third_Party/FreeRTOS/Source/event_groups.c **** 				xTimeoutOccurred = pdTRUE;
 231:Middlewares/Third_Party/FreeRTOS/Source/event_groups.c **** 			}
 232:Middlewares/Third_Party/FreeRTOS/Source/event_groups.c **** 		}
 233:Middlewares/Third_Party/FreeRTOS/Source/event_groups.c **** 	}
 234:Middlewares/Third_Party/FreeRTOS/Source/event_groups.c **** 	xAlreadyYielded = xTaskResumeAll();
 235:Middlewares/Third_Party/FreeRTOS/Source/event_groups.c **** 
 236:Middlewares/Third_Party/FreeRTOS/Source/event_groups.c **** 	if( xTicksToWait != ( TickType_t ) 0 )
 237:Middlewares/Third_Party/FreeRTOS/Source/event_groups.c **** 	{
 238:Middlewares/Third_Party/FreeRTOS/Source/event_groups.c **** 		if( xAlreadyYielded == pdFALSE )
 239:Middlewares/Third_Party/FreeRTOS/Source/event_groups.c **** 		{
 240:Middlewares/Third_Party/FreeRTOS/Source/event_groups.c **** 			portYIELD_WITHIN_API();
 241:Middlewares/Third_Party/FreeRTOS/Source/event_groups.c **** 		}
 242:Middlewares/Third_Party/FreeRTOS/Source/event_groups.c **** 		else
 243:Middlewares/Third_Party/FreeRTOS/Source/event_groups.c **** 		{
 244:Middlewares/Third_Party/FreeRTOS/Source/event_groups.c **** 			mtCOVERAGE_TEST_MARKER();
 245:Middlewares/Third_Party/FreeRTOS/Source/event_groups.c **** 		}
 246:Middlewares/Third_Party/FreeRTOS/Source/event_groups.c **** 
 247:Middlewares/Third_Party/FreeRTOS/Source/event_groups.c **** 		/* The task blocked to wait for its required bits to be set - at this
 248:Middlewares/Third_Party/FreeRTOS/Source/event_groups.c **** 		point either the required bits were set or the block time expired.  If
 249:Middlewares/Third_Party/FreeRTOS/Source/event_groups.c **** 		the required bits were set they will have been stored in the task's
 250:Middlewares/Third_Party/FreeRTOS/Source/event_groups.c **** 		event list item, and they should now be retrieved then cleared. */
 251:Middlewares/Third_Party/FreeRTOS/Source/event_groups.c **** 		uxReturn = uxTaskResetEventItemValue();
 252:Middlewares/Third_Party/FreeRTOS/Source/event_groups.c **** 
 253:Middlewares/Third_Party/FreeRTOS/Source/event_groups.c **** 		if( ( uxReturn & eventUNBLOCKED_DUE_TO_BIT_SET ) == ( EventBits_t ) 0 )
 254:Middlewares/Third_Party/FreeRTOS/Source/event_groups.c **** 		{
 255:Middlewares/Third_Party/FreeRTOS/Source/event_groups.c **** 			/* The task timed out, just return the current event bit value. */
 256:Middlewares/Third_Party/FreeRTOS/Source/event_groups.c **** 			taskENTER_CRITICAL();
 257:Middlewares/Third_Party/FreeRTOS/Source/event_groups.c **** 			{
 258:Middlewares/Third_Party/FreeRTOS/Source/event_groups.c **** 				uxReturn = pxEventBits->uxEventBits;
 259:Middlewares/Third_Party/FreeRTOS/Source/event_groups.c **** 
 260:Middlewares/Third_Party/FreeRTOS/Source/event_groups.c **** 				/* Although the task got here because it timed out before the
ARM GAS  C:\Users\Abhinav\AppData\Local\Temp\cc3ESLnv.s 			page 6


 261:Middlewares/Third_Party/FreeRTOS/Source/event_groups.c **** 				bits it was waiting for were set, it is possible that since it
 262:Middlewares/Third_Party/FreeRTOS/Source/event_groups.c **** 				unblocked another task has set the bits.  If this is the case
 263:Middlewares/Third_Party/FreeRTOS/Source/event_groups.c **** 				then it needs to clear the bits before exiting. */
 264:Middlewares/Third_Party/FreeRTOS/Source/event_groups.c **** 				if( ( uxReturn & uxBitsToWaitFor ) == uxBitsToWaitFor )
 265:Middlewares/Third_Party/FreeRTOS/Source/event_groups.c **** 				{
 266:Middlewares/Third_Party/FreeRTOS/Source/event_groups.c **** 					pxEventBits->uxEventBits &= ~uxBitsToWaitFor;
 267:Middlewares/Third_Party/FreeRTOS/Source/event_groups.c **** 				}
 268:Middlewares/Third_Party/FreeRTOS/Source/event_groups.c **** 				else
 269:Middlewares/Third_Party/FreeRTOS/Source/event_groups.c **** 				{
 270:Middlewares/Third_Party/FreeRTOS/Source/event_groups.c **** 					mtCOVERAGE_TEST_MARKER();
 271:Middlewares/Third_Party/FreeRTOS/Source/event_groups.c **** 				}
 272:Middlewares/Third_Party/FreeRTOS/Source/event_groups.c **** 			}
 273:Middlewares/Third_Party/FreeRTOS/Source/event_groups.c **** 			taskEXIT_CRITICAL();
 274:Middlewares/Third_Party/FreeRTOS/Source/event_groups.c **** 
 275:Middlewares/Third_Party/FreeRTOS/Source/event_groups.c **** 			xTimeoutOccurred = pdTRUE;
 276:Middlewares/Third_Party/FreeRTOS/Source/event_groups.c **** 		}
 277:Middlewares/Third_Party/FreeRTOS/Source/event_groups.c **** 		else
 278:Middlewares/Third_Party/FreeRTOS/Source/event_groups.c **** 		{
 279:Middlewares/Third_Party/FreeRTOS/Source/event_groups.c **** 			/* The task unblocked because the bits were set. */
 280:Middlewares/Third_Party/FreeRTOS/Source/event_groups.c **** 		}
 281:Middlewares/Third_Party/FreeRTOS/Source/event_groups.c **** 
 282:Middlewares/Third_Party/FreeRTOS/Source/event_groups.c **** 		/* Control bits might be set as the task had blocked should not be
 283:Middlewares/Third_Party/FreeRTOS/Source/event_groups.c **** 		returned. */
 284:Middlewares/Third_Party/FreeRTOS/Source/event_groups.c **** 		uxReturn &= ~eventEVENT_BITS_CONTROL_BYTES;
 285:Middlewares/Third_Party/FreeRTOS/Source/event_groups.c **** 	}
 286:Middlewares/Third_Party/FreeRTOS/Source/event_groups.c **** 
 287:Middlewares/Third_Party/FreeRTOS/Source/event_groups.c **** 	traceEVENT_GROUP_SYNC_END( xEventGroup, uxBitsToSet, uxBitsToWaitFor, xTimeoutOccurred );
 288:Middlewares/Third_Party/FreeRTOS/Source/event_groups.c **** 
 289:Middlewares/Third_Party/FreeRTOS/Source/event_groups.c **** 	/* Prevent compiler warnings when trace macros are not used. */
 290:Middlewares/Third_Party/FreeRTOS/Source/event_groups.c **** 	( void ) xTimeoutOccurred;
 291:Middlewares/Third_Party/FreeRTOS/Source/event_groups.c **** 
 292:Middlewares/Third_Party/FreeRTOS/Source/event_groups.c **** 	return uxReturn;
 293:Middlewares/Third_Party/FreeRTOS/Source/event_groups.c **** }
 294:Middlewares/Third_Party/FreeRTOS/Source/event_groups.c **** /*-----------------------------------------------------------*/
 295:Middlewares/Third_Party/FreeRTOS/Source/event_groups.c **** 
 296:Middlewares/Third_Party/FreeRTOS/Source/event_groups.c **** EventBits_t xEventGroupWaitBits( EventGroupHandle_t xEventGroup, const EventBits_t uxBitsToWaitFor,
 297:Middlewares/Third_Party/FreeRTOS/Source/event_groups.c **** {
 298:Middlewares/Third_Party/FreeRTOS/Source/event_groups.c **** EventGroup_t *pxEventBits = ( EventGroup_t * ) xEventGroup;
 299:Middlewares/Third_Party/FreeRTOS/Source/event_groups.c **** EventBits_t uxReturn, uxControlBits = 0;
 300:Middlewares/Third_Party/FreeRTOS/Source/event_groups.c **** BaseType_t xWaitConditionMet, xAlreadyYielded;
 301:Middlewares/Third_Party/FreeRTOS/Source/event_groups.c **** BaseType_t xTimeoutOccurred = pdFALSE;
 302:Middlewares/Third_Party/FreeRTOS/Source/event_groups.c **** 
 303:Middlewares/Third_Party/FreeRTOS/Source/event_groups.c **** 	/* Check the user is not attempting to wait on the bits used by the kernel
 304:Middlewares/Third_Party/FreeRTOS/Source/event_groups.c **** 	itself, and that at least one bit is being requested. */
 305:Middlewares/Third_Party/FreeRTOS/Source/event_groups.c **** 	configASSERT( xEventGroup );
 306:Middlewares/Third_Party/FreeRTOS/Source/event_groups.c **** 	configASSERT( ( uxBitsToWaitFor & eventEVENT_BITS_CONTROL_BYTES ) == 0 );
 307:Middlewares/Third_Party/FreeRTOS/Source/event_groups.c **** 	configASSERT( uxBitsToWaitFor != 0 );
 308:Middlewares/Third_Party/FreeRTOS/Source/event_groups.c **** 	#if ( ( INCLUDE_xTaskGetSchedulerState == 1 ) || ( configUSE_TIMERS == 1 ) )
 309:Middlewares/Third_Party/FreeRTOS/Source/event_groups.c **** 	{
 310:Middlewares/Third_Party/FreeRTOS/Source/event_groups.c **** 		configASSERT( !( ( xTaskGetSchedulerState() == taskSCHEDULER_SUSPENDED ) && ( xTicksToWait != 0 )
 311:Middlewares/Third_Party/FreeRTOS/Source/event_groups.c **** 	}
 312:Middlewares/Third_Party/FreeRTOS/Source/event_groups.c **** 	#endif
 313:Middlewares/Third_Party/FreeRTOS/Source/event_groups.c **** 
 314:Middlewares/Third_Party/FreeRTOS/Source/event_groups.c **** 	vTaskSuspendAll();
 315:Middlewares/Third_Party/FreeRTOS/Source/event_groups.c **** 	{
 316:Middlewares/Third_Party/FreeRTOS/Source/event_groups.c **** 		const EventBits_t uxCurrentEventBits = pxEventBits->uxEventBits;
 317:Middlewares/Third_Party/FreeRTOS/Source/event_groups.c **** 
ARM GAS  C:\Users\Abhinav\AppData\Local\Temp\cc3ESLnv.s 			page 7


 318:Middlewares/Third_Party/FreeRTOS/Source/event_groups.c **** 		/* Check to see if the wait condition is already met or not. */
 319:Middlewares/Third_Party/FreeRTOS/Source/event_groups.c **** 		xWaitConditionMet = prvTestWaitCondition( uxCurrentEventBits, uxBitsToWaitFor, xWaitForAllBits );
 320:Middlewares/Third_Party/FreeRTOS/Source/event_groups.c **** 
 321:Middlewares/Third_Party/FreeRTOS/Source/event_groups.c **** 		if( xWaitConditionMet != pdFALSE )
 322:Middlewares/Third_Party/FreeRTOS/Source/event_groups.c **** 		{
 323:Middlewares/Third_Party/FreeRTOS/Source/event_groups.c **** 			/* The wait condition has already been met so there is no need to
 324:Middlewares/Third_Party/FreeRTOS/Source/event_groups.c **** 			block. */
 325:Middlewares/Third_Party/FreeRTOS/Source/event_groups.c **** 			uxReturn = uxCurrentEventBits;
 326:Middlewares/Third_Party/FreeRTOS/Source/event_groups.c **** 			xTicksToWait = ( TickType_t ) 0;
 327:Middlewares/Third_Party/FreeRTOS/Source/event_groups.c **** 
 328:Middlewares/Third_Party/FreeRTOS/Source/event_groups.c **** 			/* Clear the wait bits if requested to do so. */
 329:Middlewares/Third_Party/FreeRTOS/Source/event_groups.c **** 			if( xClearOnExit != pdFALSE )
 330:Middlewares/Third_Party/FreeRTOS/Source/event_groups.c **** 			{
 331:Middlewares/Third_Party/FreeRTOS/Source/event_groups.c **** 				pxEventBits->uxEventBits &= ~uxBitsToWaitFor;
 332:Middlewares/Third_Party/FreeRTOS/Source/event_groups.c **** 			}
 333:Middlewares/Third_Party/FreeRTOS/Source/event_groups.c **** 			else
 334:Middlewares/Third_Party/FreeRTOS/Source/event_groups.c **** 			{
 335:Middlewares/Third_Party/FreeRTOS/Source/event_groups.c **** 				mtCOVERAGE_TEST_MARKER();
 336:Middlewares/Third_Party/FreeRTOS/Source/event_groups.c **** 			}
 337:Middlewares/Third_Party/FreeRTOS/Source/event_groups.c **** 		}
 338:Middlewares/Third_Party/FreeRTOS/Source/event_groups.c **** 		else if( xTicksToWait == ( TickType_t ) 0 )
 339:Middlewares/Third_Party/FreeRTOS/Source/event_groups.c **** 		{
 340:Middlewares/Third_Party/FreeRTOS/Source/event_groups.c **** 			/* The wait condition has not been met, but no block time was
 341:Middlewares/Third_Party/FreeRTOS/Source/event_groups.c **** 			specified, so just return the current value. */
 342:Middlewares/Third_Party/FreeRTOS/Source/event_groups.c **** 			uxReturn = uxCurrentEventBits;
 343:Middlewares/Third_Party/FreeRTOS/Source/event_groups.c **** 			xTimeoutOccurred = pdTRUE;
 344:Middlewares/Third_Party/FreeRTOS/Source/event_groups.c **** 		}
 345:Middlewares/Third_Party/FreeRTOS/Source/event_groups.c **** 		else
 346:Middlewares/Third_Party/FreeRTOS/Source/event_groups.c **** 		{
 347:Middlewares/Third_Party/FreeRTOS/Source/event_groups.c **** 			/* The task is going to block to wait for its required bits to be
 348:Middlewares/Third_Party/FreeRTOS/Source/event_groups.c **** 			set.  uxControlBits are used to remember the specified behaviour of
 349:Middlewares/Third_Party/FreeRTOS/Source/event_groups.c **** 			this call to xEventGroupWaitBits() - for use when the event bits
 350:Middlewares/Third_Party/FreeRTOS/Source/event_groups.c **** 			unblock the task. */
 351:Middlewares/Third_Party/FreeRTOS/Source/event_groups.c **** 			if( xClearOnExit != pdFALSE )
 352:Middlewares/Third_Party/FreeRTOS/Source/event_groups.c **** 			{
 353:Middlewares/Third_Party/FreeRTOS/Source/event_groups.c **** 				uxControlBits |= eventCLEAR_EVENTS_ON_EXIT_BIT;
 354:Middlewares/Third_Party/FreeRTOS/Source/event_groups.c **** 			}
 355:Middlewares/Third_Party/FreeRTOS/Source/event_groups.c **** 			else
 356:Middlewares/Third_Party/FreeRTOS/Source/event_groups.c **** 			{
 357:Middlewares/Third_Party/FreeRTOS/Source/event_groups.c **** 				mtCOVERAGE_TEST_MARKER();
 358:Middlewares/Third_Party/FreeRTOS/Source/event_groups.c **** 			}
 359:Middlewares/Third_Party/FreeRTOS/Source/event_groups.c **** 
 360:Middlewares/Third_Party/FreeRTOS/Source/event_groups.c **** 			if( xWaitForAllBits != pdFALSE )
 361:Middlewares/Third_Party/FreeRTOS/Source/event_groups.c **** 			{
 362:Middlewares/Third_Party/FreeRTOS/Source/event_groups.c **** 				uxControlBits |= eventWAIT_FOR_ALL_BITS;
 363:Middlewares/Third_Party/FreeRTOS/Source/event_groups.c **** 			}
 364:Middlewares/Third_Party/FreeRTOS/Source/event_groups.c **** 			else
 365:Middlewares/Third_Party/FreeRTOS/Source/event_groups.c **** 			{
 366:Middlewares/Third_Party/FreeRTOS/Source/event_groups.c **** 				mtCOVERAGE_TEST_MARKER();
 367:Middlewares/Third_Party/FreeRTOS/Source/event_groups.c **** 			}
 368:Middlewares/Third_Party/FreeRTOS/Source/event_groups.c **** 
 369:Middlewares/Third_Party/FreeRTOS/Source/event_groups.c **** 			/* Store the bits that the calling task is waiting for in the
 370:Middlewares/Third_Party/FreeRTOS/Source/event_groups.c **** 			task's event list item so the kernel knows when a match is
 371:Middlewares/Third_Party/FreeRTOS/Source/event_groups.c **** 			found.  Then enter the blocked state. */
 372:Middlewares/Third_Party/FreeRTOS/Source/event_groups.c **** 			vTaskPlaceOnUnorderedEventList( &( pxEventBits->xTasksWaitingForBits ), ( uxBitsToWaitFor | uxCo
 373:Middlewares/Third_Party/FreeRTOS/Source/event_groups.c **** 
 374:Middlewares/Third_Party/FreeRTOS/Source/event_groups.c **** 			/* This is obsolete as it will get set after the task unblocks, but
ARM GAS  C:\Users\Abhinav\AppData\Local\Temp\cc3ESLnv.s 			page 8


 375:Middlewares/Third_Party/FreeRTOS/Source/event_groups.c **** 			some compilers mistakenly generate a warning about the variable
 376:Middlewares/Third_Party/FreeRTOS/Source/event_groups.c **** 			being returned without being set if it is not done. */
 377:Middlewares/Third_Party/FreeRTOS/Source/event_groups.c **** 			uxReturn = 0;
 378:Middlewares/Third_Party/FreeRTOS/Source/event_groups.c **** 
 379:Middlewares/Third_Party/FreeRTOS/Source/event_groups.c **** 			traceEVENT_GROUP_WAIT_BITS_BLOCK( xEventGroup, uxBitsToWaitFor );
 380:Middlewares/Third_Party/FreeRTOS/Source/event_groups.c **** 		}
 381:Middlewares/Third_Party/FreeRTOS/Source/event_groups.c **** 	}
 382:Middlewares/Third_Party/FreeRTOS/Source/event_groups.c **** 	xAlreadyYielded = xTaskResumeAll();
 383:Middlewares/Third_Party/FreeRTOS/Source/event_groups.c **** 
 384:Middlewares/Third_Party/FreeRTOS/Source/event_groups.c **** 	if( xTicksToWait != ( TickType_t ) 0 )
 385:Middlewares/Third_Party/FreeRTOS/Source/event_groups.c **** 	{
 386:Middlewares/Third_Party/FreeRTOS/Source/event_groups.c **** 		if( xAlreadyYielded == pdFALSE )
 387:Middlewares/Third_Party/FreeRTOS/Source/event_groups.c **** 		{
 388:Middlewares/Third_Party/FreeRTOS/Source/event_groups.c **** 			portYIELD_WITHIN_API();
 389:Middlewares/Third_Party/FreeRTOS/Source/event_groups.c **** 		}
 390:Middlewares/Third_Party/FreeRTOS/Source/event_groups.c **** 		else
 391:Middlewares/Third_Party/FreeRTOS/Source/event_groups.c **** 		{
 392:Middlewares/Third_Party/FreeRTOS/Source/event_groups.c **** 			mtCOVERAGE_TEST_MARKER();
 393:Middlewares/Third_Party/FreeRTOS/Source/event_groups.c **** 		}
 394:Middlewares/Third_Party/FreeRTOS/Source/event_groups.c **** 
 395:Middlewares/Third_Party/FreeRTOS/Source/event_groups.c **** 		/* The task blocked to wait for its required bits to be set - at this
 396:Middlewares/Third_Party/FreeRTOS/Source/event_groups.c **** 		point either the required bits were set or the block time expired.  If
 397:Middlewares/Third_Party/FreeRTOS/Source/event_groups.c **** 		the required bits were set they will have been stored in the task's
 398:Middlewares/Third_Party/FreeRTOS/Source/event_groups.c **** 		event list item, and they should now be retrieved then cleared. */
 399:Middlewares/Third_Party/FreeRTOS/Source/event_groups.c **** 		uxReturn = uxTaskResetEventItemValue();
 400:Middlewares/Third_Party/FreeRTOS/Source/event_groups.c **** 
 401:Middlewares/Third_Party/FreeRTOS/Source/event_groups.c **** 		if( ( uxReturn & eventUNBLOCKED_DUE_TO_BIT_SET ) == ( EventBits_t ) 0 )
 402:Middlewares/Third_Party/FreeRTOS/Source/event_groups.c **** 		{
 403:Middlewares/Third_Party/FreeRTOS/Source/event_groups.c **** 			taskENTER_CRITICAL();
 404:Middlewares/Third_Party/FreeRTOS/Source/event_groups.c **** 			{
 405:Middlewares/Third_Party/FreeRTOS/Source/event_groups.c **** 				/* The task timed out, just return the current event bit value. */
 406:Middlewares/Third_Party/FreeRTOS/Source/event_groups.c **** 				uxReturn = pxEventBits->uxEventBits;
 407:Middlewares/Third_Party/FreeRTOS/Source/event_groups.c **** 
 408:Middlewares/Third_Party/FreeRTOS/Source/event_groups.c **** 				/* It is possible that the event bits were updated between this
 409:Middlewares/Third_Party/FreeRTOS/Source/event_groups.c **** 				task leaving the Blocked state and running again. */
 410:Middlewares/Third_Party/FreeRTOS/Source/event_groups.c **** 				if( prvTestWaitCondition( uxReturn, uxBitsToWaitFor, xWaitForAllBits ) != pdFALSE )
 411:Middlewares/Third_Party/FreeRTOS/Source/event_groups.c **** 				{
 412:Middlewares/Third_Party/FreeRTOS/Source/event_groups.c **** 					if( xClearOnExit != pdFALSE )
 413:Middlewares/Third_Party/FreeRTOS/Source/event_groups.c **** 					{
 414:Middlewares/Third_Party/FreeRTOS/Source/event_groups.c **** 						pxEventBits->uxEventBits &= ~uxBitsToWaitFor;
 415:Middlewares/Third_Party/FreeRTOS/Source/event_groups.c **** 					}
 416:Middlewares/Third_Party/FreeRTOS/Source/event_groups.c **** 					else
 417:Middlewares/Third_Party/FreeRTOS/Source/event_groups.c **** 					{
 418:Middlewares/Third_Party/FreeRTOS/Source/event_groups.c **** 						mtCOVERAGE_TEST_MARKER();
 419:Middlewares/Third_Party/FreeRTOS/Source/event_groups.c **** 					}
 420:Middlewares/Third_Party/FreeRTOS/Source/event_groups.c **** 				}
 421:Middlewares/Third_Party/FreeRTOS/Source/event_groups.c **** 				else
 422:Middlewares/Third_Party/FreeRTOS/Source/event_groups.c **** 				{
 423:Middlewares/Third_Party/FreeRTOS/Source/event_groups.c **** 					mtCOVERAGE_TEST_MARKER();
 424:Middlewares/Third_Party/FreeRTOS/Source/event_groups.c **** 				}
 425:Middlewares/Third_Party/FreeRTOS/Source/event_groups.c **** 				xTimeoutOccurred = pdTRUE;
 426:Middlewares/Third_Party/FreeRTOS/Source/event_groups.c **** 			}
 427:Middlewares/Third_Party/FreeRTOS/Source/event_groups.c **** 			taskEXIT_CRITICAL();
 428:Middlewares/Third_Party/FreeRTOS/Source/event_groups.c **** 		}
 429:Middlewares/Third_Party/FreeRTOS/Source/event_groups.c **** 		else
 430:Middlewares/Third_Party/FreeRTOS/Source/event_groups.c **** 		{
 431:Middlewares/Third_Party/FreeRTOS/Source/event_groups.c **** 			/* The task unblocked because the bits were set. */
ARM GAS  C:\Users\Abhinav\AppData\Local\Temp\cc3ESLnv.s 			page 9


 432:Middlewares/Third_Party/FreeRTOS/Source/event_groups.c **** 		}
 433:Middlewares/Third_Party/FreeRTOS/Source/event_groups.c **** 
 434:Middlewares/Third_Party/FreeRTOS/Source/event_groups.c **** 		/* The task blocked so control bits may have been set. */
 435:Middlewares/Third_Party/FreeRTOS/Source/event_groups.c **** 		uxReturn &= ~eventEVENT_BITS_CONTROL_BYTES;
 436:Middlewares/Third_Party/FreeRTOS/Source/event_groups.c **** 	}
 437:Middlewares/Third_Party/FreeRTOS/Source/event_groups.c **** 	traceEVENT_GROUP_WAIT_BITS_END( xEventGroup, uxBitsToWaitFor, xTimeoutOccurred );
 438:Middlewares/Third_Party/FreeRTOS/Source/event_groups.c **** 
 439:Middlewares/Third_Party/FreeRTOS/Source/event_groups.c **** 	/* Prevent compiler warnings when trace macros are not used. */
 440:Middlewares/Third_Party/FreeRTOS/Source/event_groups.c **** 	( void ) xTimeoutOccurred;
 441:Middlewares/Third_Party/FreeRTOS/Source/event_groups.c **** 
 442:Middlewares/Third_Party/FreeRTOS/Source/event_groups.c **** 	return uxReturn;
 443:Middlewares/Third_Party/FreeRTOS/Source/event_groups.c **** }
 444:Middlewares/Third_Party/FreeRTOS/Source/event_groups.c **** /*-----------------------------------------------------------*/
 445:Middlewares/Third_Party/FreeRTOS/Source/event_groups.c **** 
 446:Middlewares/Third_Party/FreeRTOS/Source/event_groups.c **** EventBits_t xEventGroupClearBits( EventGroupHandle_t xEventGroup, const EventBits_t uxBitsToClear )
 447:Middlewares/Third_Party/FreeRTOS/Source/event_groups.c **** {
 448:Middlewares/Third_Party/FreeRTOS/Source/event_groups.c **** EventGroup_t *pxEventBits = ( EventGroup_t * ) xEventGroup;
 449:Middlewares/Third_Party/FreeRTOS/Source/event_groups.c **** EventBits_t uxReturn;
 450:Middlewares/Third_Party/FreeRTOS/Source/event_groups.c **** 
 451:Middlewares/Third_Party/FreeRTOS/Source/event_groups.c **** 	/* Check the user is not attempting to clear the bits used by the kernel
 452:Middlewares/Third_Party/FreeRTOS/Source/event_groups.c **** 	itself. */
 453:Middlewares/Third_Party/FreeRTOS/Source/event_groups.c **** 	configASSERT( xEventGroup );
 454:Middlewares/Third_Party/FreeRTOS/Source/event_groups.c **** 	configASSERT( ( uxBitsToClear & eventEVENT_BITS_CONTROL_BYTES ) == 0 );
 455:Middlewares/Third_Party/FreeRTOS/Source/event_groups.c **** 
 456:Middlewares/Third_Party/FreeRTOS/Source/event_groups.c **** 	taskENTER_CRITICAL();
 457:Middlewares/Third_Party/FreeRTOS/Source/event_groups.c **** 	{
 458:Middlewares/Third_Party/FreeRTOS/Source/event_groups.c **** 		traceEVENT_GROUP_CLEAR_BITS( xEventGroup, uxBitsToClear );
 459:Middlewares/Third_Party/FreeRTOS/Source/event_groups.c **** 
 460:Middlewares/Third_Party/FreeRTOS/Source/event_groups.c **** 		/* The value returned is the event group value prior to the bits being
 461:Middlewares/Third_Party/FreeRTOS/Source/event_groups.c **** 		cleared. */
 462:Middlewares/Third_Party/FreeRTOS/Source/event_groups.c **** 		uxReturn = pxEventBits->uxEventBits;
 463:Middlewares/Third_Party/FreeRTOS/Source/event_groups.c **** 
 464:Middlewares/Third_Party/FreeRTOS/Source/event_groups.c **** 		/* Clear the bits. */
 465:Middlewares/Third_Party/FreeRTOS/Source/event_groups.c **** 		pxEventBits->uxEventBits &= ~uxBitsToClear;
 466:Middlewares/Third_Party/FreeRTOS/Source/event_groups.c **** 	}
 467:Middlewares/Third_Party/FreeRTOS/Source/event_groups.c **** 	taskEXIT_CRITICAL();
 468:Middlewares/Third_Party/FreeRTOS/Source/event_groups.c **** 
 469:Middlewares/Third_Party/FreeRTOS/Source/event_groups.c **** 	return uxReturn;
 470:Middlewares/Third_Party/FreeRTOS/Source/event_groups.c **** }
 471:Middlewares/Third_Party/FreeRTOS/Source/event_groups.c **** /*-----------------------------------------------------------*/
 472:Middlewares/Third_Party/FreeRTOS/Source/event_groups.c **** 
 473:Middlewares/Third_Party/FreeRTOS/Source/event_groups.c **** #if ( ( configUSE_TRACE_FACILITY == 1 ) && ( INCLUDE_xTimerPendFunctionCall == 1 ) && ( configUSE_T
 474:Middlewares/Third_Party/FreeRTOS/Source/event_groups.c **** 
 475:Middlewares/Third_Party/FreeRTOS/Source/event_groups.c **** 	BaseType_t xEventGroupClearBitsFromISR( EventGroupHandle_t xEventGroup, const EventBits_t uxBitsTo
 476:Middlewares/Third_Party/FreeRTOS/Source/event_groups.c **** 	{
 477:Middlewares/Third_Party/FreeRTOS/Source/event_groups.c **** 		BaseType_t xReturn;
 478:Middlewares/Third_Party/FreeRTOS/Source/event_groups.c **** 
 479:Middlewares/Third_Party/FreeRTOS/Source/event_groups.c **** 		traceEVENT_GROUP_CLEAR_BITS_FROM_ISR( xEventGroup, uxBitsToClear );
 480:Middlewares/Third_Party/FreeRTOS/Source/event_groups.c **** 		xReturn = xTimerPendFunctionCallFromISR( vEventGroupClearBitsCallback, ( void * ) xEventGroup, ( 
 481:Middlewares/Third_Party/FreeRTOS/Source/event_groups.c **** 
 482:Middlewares/Third_Party/FreeRTOS/Source/event_groups.c **** 		return xReturn;
 483:Middlewares/Third_Party/FreeRTOS/Source/event_groups.c **** 	}
 484:Middlewares/Third_Party/FreeRTOS/Source/event_groups.c **** 
 485:Middlewares/Third_Party/FreeRTOS/Source/event_groups.c **** #endif
 486:Middlewares/Third_Party/FreeRTOS/Source/event_groups.c **** /*-----------------------------------------------------------*/
 487:Middlewares/Third_Party/FreeRTOS/Source/event_groups.c **** 
 488:Middlewares/Third_Party/FreeRTOS/Source/event_groups.c **** EventBits_t xEventGroupGetBitsFromISR( EventGroupHandle_t xEventGroup )
ARM GAS  C:\Users\Abhinav\AppData\Local\Temp\cc3ESLnv.s 			page 10


 489:Middlewares/Third_Party/FreeRTOS/Source/event_groups.c **** {
 490:Middlewares/Third_Party/FreeRTOS/Source/event_groups.c **** UBaseType_t uxSavedInterruptStatus;
 491:Middlewares/Third_Party/FreeRTOS/Source/event_groups.c **** EventGroup_t *pxEventBits = ( EventGroup_t * ) xEventGroup;
 492:Middlewares/Third_Party/FreeRTOS/Source/event_groups.c **** EventBits_t uxReturn;
 493:Middlewares/Third_Party/FreeRTOS/Source/event_groups.c **** 
 494:Middlewares/Third_Party/FreeRTOS/Source/event_groups.c **** 	uxSavedInterruptStatus = portSET_INTERRUPT_MASK_FROM_ISR();
 495:Middlewares/Third_Party/FreeRTOS/Source/event_groups.c **** 	{
 496:Middlewares/Third_Party/FreeRTOS/Source/event_groups.c **** 		uxReturn = pxEventBits->uxEventBits;
 497:Middlewares/Third_Party/FreeRTOS/Source/event_groups.c **** 	}
 498:Middlewares/Third_Party/FreeRTOS/Source/event_groups.c **** 	portCLEAR_INTERRUPT_MASK_FROM_ISR( uxSavedInterruptStatus );
 499:Middlewares/Third_Party/FreeRTOS/Source/event_groups.c **** 
 500:Middlewares/Third_Party/FreeRTOS/Source/event_groups.c **** 	return uxReturn;
 501:Middlewares/Third_Party/FreeRTOS/Source/event_groups.c **** }
 502:Middlewares/Third_Party/FreeRTOS/Source/event_groups.c **** /*-----------------------------------------------------------*/
 503:Middlewares/Third_Party/FreeRTOS/Source/event_groups.c **** 
 504:Middlewares/Third_Party/FreeRTOS/Source/event_groups.c **** EventBits_t xEventGroupSetBits( EventGroupHandle_t xEventGroup, const EventBits_t uxBitsToSet )
 505:Middlewares/Third_Party/FreeRTOS/Source/event_groups.c **** {
 506:Middlewares/Third_Party/FreeRTOS/Source/event_groups.c **** ListItem_t *pxListItem, *pxNext;
 507:Middlewares/Third_Party/FreeRTOS/Source/event_groups.c **** ListItem_t const *pxListEnd;
 508:Middlewares/Third_Party/FreeRTOS/Source/event_groups.c **** List_t *pxList;
 509:Middlewares/Third_Party/FreeRTOS/Source/event_groups.c **** EventBits_t uxBitsToClear = 0, uxBitsWaitedFor, uxControlBits;
 510:Middlewares/Third_Party/FreeRTOS/Source/event_groups.c **** EventGroup_t *pxEventBits = ( EventGroup_t * ) xEventGroup;
 511:Middlewares/Third_Party/FreeRTOS/Source/event_groups.c **** BaseType_t xMatchFound = pdFALSE;
 512:Middlewares/Third_Party/FreeRTOS/Source/event_groups.c **** 
 513:Middlewares/Third_Party/FreeRTOS/Source/event_groups.c **** 	/* Check the user is not attempting to set the bits used by the kernel
 514:Middlewares/Third_Party/FreeRTOS/Source/event_groups.c **** 	itself. */
 515:Middlewares/Third_Party/FreeRTOS/Source/event_groups.c **** 	configASSERT( xEventGroup );
 516:Middlewares/Third_Party/FreeRTOS/Source/event_groups.c **** 	configASSERT( ( uxBitsToSet & eventEVENT_BITS_CONTROL_BYTES ) == 0 );
 517:Middlewares/Third_Party/FreeRTOS/Source/event_groups.c **** 
 518:Middlewares/Third_Party/FreeRTOS/Source/event_groups.c **** 	pxList = &( pxEventBits->xTasksWaitingForBits );
 519:Middlewares/Third_Party/FreeRTOS/Source/event_groups.c **** 	pxListEnd = listGET_END_MARKER( pxList ); /*lint !e826 !e740 The mini list structure is used as th
 520:Middlewares/Third_Party/FreeRTOS/Source/event_groups.c **** 	vTaskSuspendAll();
 521:Middlewares/Third_Party/FreeRTOS/Source/event_groups.c **** 	{
 522:Middlewares/Third_Party/FreeRTOS/Source/event_groups.c **** 		traceEVENT_GROUP_SET_BITS( xEventGroup, uxBitsToSet );
 523:Middlewares/Third_Party/FreeRTOS/Source/event_groups.c **** 
 524:Middlewares/Third_Party/FreeRTOS/Source/event_groups.c **** 		pxListItem = listGET_HEAD_ENTRY( pxList );
 525:Middlewares/Third_Party/FreeRTOS/Source/event_groups.c **** 
 526:Middlewares/Third_Party/FreeRTOS/Source/event_groups.c **** 		/* Set the bits. */
 527:Middlewares/Third_Party/FreeRTOS/Source/event_groups.c **** 		pxEventBits->uxEventBits |= uxBitsToSet;
 528:Middlewares/Third_Party/FreeRTOS/Source/event_groups.c **** 
 529:Middlewares/Third_Party/FreeRTOS/Source/event_groups.c **** 		/* See if the new bit value should unblock any tasks. */
 530:Middlewares/Third_Party/FreeRTOS/Source/event_groups.c **** 		while( pxListItem != pxListEnd )
 531:Middlewares/Third_Party/FreeRTOS/Source/event_groups.c **** 		{
 532:Middlewares/Third_Party/FreeRTOS/Source/event_groups.c **** 			pxNext = listGET_NEXT( pxListItem );
 533:Middlewares/Third_Party/FreeRTOS/Source/event_groups.c **** 			uxBitsWaitedFor = listGET_LIST_ITEM_VALUE( pxListItem );
 534:Middlewares/Third_Party/FreeRTOS/Source/event_groups.c **** 			xMatchFound = pdFALSE;
 535:Middlewares/Third_Party/FreeRTOS/Source/event_groups.c **** 
 536:Middlewares/Third_Party/FreeRTOS/Source/event_groups.c **** 			/* Split the bits waited for from the control bits. */
 537:Middlewares/Third_Party/FreeRTOS/Source/event_groups.c **** 			uxControlBits = uxBitsWaitedFor & eventEVENT_BITS_CONTROL_BYTES;
 538:Middlewares/Third_Party/FreeRTOS/Source/event_groups.c **** 			uxBitsWaitedFor &= ~eventEVENT_BITS_CONTROL_BYTES;
 539:Middlewares/Third_Party/FreeRTOS/Source/event_groups.c **** 
 540:Middlewares/Third_Party/FreeRTOS/Source/event_groups.c **** 			if( ( uxControlBits & eventWAIT_FOR_ALL_BITS ) == ( EventBits_t ) 0 )
 541:Middlewares/Third_Party/FreeRTOS/Source/event_groups.c **** 			{
 542:Middlewares/Third_Party/FreeRTOS/Source/event_groups.c **** 				/* Just looking for single bit being set. */
 543:Middlewares/Third_Party/FreeRTOS/Source/event_groups.c **** 				if( ( uxBitsWaitedFor & pxEventBits->uxEventBits ) != ( EventBits_t ) 0 )
 544:Middlewares/Third_Party/FreeRTOS/Source/event_groups.c **** 				{
 545:Middlewares/Third_Party/FreeRTOS/Source/event_groups.c **** 					xMatchFound = pdTRUE;
ARM GAS  C:\Users\Abhinav\AppData\Local\Temp\cc3ESLnv.s 			page 11


 546:Middlewares/Third_Party/FreeRTOS/Source/event_groups.c **** 				}
 547:Middlewares/Third_Party/FreeRTOS/Source/event_groups.c **** 				else
 548:Middlewares/Third_Party/FreeRTOS/Source/event_groups.c **** 				{
 549:Middlewares/Third_Party/FreeRTOS/Source/event_groups.c **** 					mtCOVERAGE_TEST_MARKER();
 550:Middlewares/Third_Party/FreeRTOS/Source/event_groups.c **** 				}
 551:Middlewares/Third_Party/FreeRTOS/Source/event_groups.c **** 			}
 552:Middlewares/Third_Party/FreeRTOS/Source/event_groups.c **** 			else if( ( uxBitsWaitedFor & pxEventBits->uxEventBits ) == uxBitsWaitedFor )
 553:Middlewares/Third_Party/FreeRTOS/Source/event_groups.c **** 			{
 554:Middlewares/Third_Party/FreeRTOS/Source/event_groups.c **** 				/* All bits are set. */
 555:Middlewares/Third_Party/FreeRTOS/Source/event_groups.c **** 				xMatchFound = pdTRUE;
 556:Middlewares/Third_Party/FreeRTOS/Source/event_groups.c **** 			}
 557:Middlewares/Third_Party/FreeRTOS/Source/event_groups.c **** 			else
 558:Middlewares/Third_Party/FreeRTOS/Source/event_groups.c **** 			{
 559:Middlewares/Third_Party/FreeRTOS/Source/event_groups.c **** 				/* Need all bits to be set, but not all the bits were set. */
 560:Middlewares/Third_Party/FreeRTOS/Source/event_groups.c **** 			}
 561:Middlewares/Third_Party/FreeRTOS/Source/event_groups.c **** 
 562:Middlewares/Third_Party/FreeRTOS/Source/event_groups.c **** 			if( xMatchFound != pdFALSE )
 563:Middlewares/Third_Party/FreeRTOS/Source/event_groups.c **** 			{
 564:Middlewares/Third_Party/FreeRTOS/Source/event_groups.c **** 				/* The bits match.  Should the bits be cleared on exit? */
 565:Middlewares/Third_Party/FreeRTOS/Source/event_groups.c **** 				if( ( uxControlBits & eventCLEAR_EVENTS_ON_EXIT_BIT ) != ( EventBits_t ) 0 )
 566:Middlewares/Third_Party/FreeRTOS/Source/event_groups.c **** 				{
 567:Middlewares/Third_Party/FreeRTOS/Source/event_groups.c **** 					uxBitsToClear |= uxBitsWaitedFor;
 568:Middlewares/Third_Party/FreeRTOS/Source/event_groups.c **** 				}
 569:Middlewares/Third_Party/FreeRTOS/Source/event_groups.c **** 				else
 570:Middlewares/Third_Party/FreeRTOS/Source/event_groups.c **** 				{
 571:Middlewares/Third_Party/FreeRTOS/Source/event_groups.c **** 					mtCOVERAGE_TEST_MARKER();
 572:Middlewares/Third_Party/FreeRTOS/Source/event_groups.c **** 				}
 573:Middlewares/Third_Party/FreeRTOS/Source/event_groups.c **** 
 574:Middlewares/Third_Party/FreeRTOS/Source/event_groups.c **** 				/* Store the actual event flag value in the task's event list
 575:Middlewares/Third_Party/FreeRTOS/Source/event_groups.c **** 				item before removing the task from the event list.  The
 576:Middlewares/Third_Party/FreeRTOS/Source/event_groups.c **** 				eventUNBLOCKED_DUE_TO_BIT_SET bit is set so the task knows
 577:Middlewares/Third_Party/FreeRTOS/Source/event_groups.c **** 				that is was unblocked due to its required bits matching, rather
 578:Middlewares/Third_Party/FreeRTOS/Source/event_groups.c **** 				than because it timed out. */
 579:Middlewares/Third_Party/FreeRTOS/Source/event_groups.c **** 				vTaskRemoveFromUnorderedEventList( pxListItem, pxEventBits->uxEventBits | eventUNBLOCKED_DUE_TO
 580:Middlewares/Third_Party/FreeRTOS/Source/event_groups.c **** 			}
 581:Middlewares/Third_Party/FreeRTOS/Source/event_groups.c **** 
 582:Middlewares/Third_Party/FreeRTOS/Source/event_groups.c **** 			/* Move onto the next list item.  Note pxListItem->pxNext is not
 583:Middlewares/Third_Party/FreeRTOS/Source/event_groups.c **** 			used here as the list item may have been removed from the event list
 584:Middlewares/Third_Party/FreeRTOS/Source/event_groups.c **** 			and inserted into the ready/pending reading list. */
 585:Middlewares/Third_Party/FreeRTOS/Source/event_groups.c **** 			pxListItem = pxNext;
 586:Middlewares/Third_Party/FreeRTOS/Source/event_groups.c **** 		}
 587:Middlewares/Third_Party/FreeRTOS/Source/event_groups.c **** 
 588:Middlewares/Third_Party/FreeRTOS/Source/event_groups.c **** 		/* Clear any bits that matched when the eventCLEAR_EVENTS_ON_EXIT_BIT
 589:Middlewares/Third_Party/FreeRTOS/Source/event_groups.c **** 		bit was set in the control word. */
 590:Middlewares/Third_Party/FreeRTOS/Source/event_groups.c **** 		pxEventBits->uxEventBits &= ~uxBitsToClear;
 591:Middlewares/Third_Party/FreeRTOS/Source/event_groups.c **** 	}
 592:Middlewares/Third_Party/FreeRTOS/Source/event_groups.c **** 	( void ) xTaskResumeAll();
 593:Middlewares/Third_Party/FreeRTOS/Source/event_groups.c **** 
 594:Middlewares/Third_Party/FreeRTOS/Source/event_groups.c **** 	return pxEventBits->uxEventBits;
 595:Middlewares/Third_Party/FreeRTOS/Source/event_groups.c **** }
 596:Middlewares/Third_Party/FreeRTOS/Source/event_groups.c **** /*-----------------------------------------------------------*/
 597:Middlewares/Third_Party/FreeRTOS/Source/event_groups.c **** 
 598:Middlewares/Third_Party/FreeRTOS/Source/event_groups.c **** void vEventGroupDelete( EventGroupHandle_t xEventGroup )
 599:Middlewares/Third_Party/FreeRTOS/Source/event_groups.c **** {
 600:Middlewares/Third_Party/FreeRTOS/Source/event_groups.c **** EventGroup_t *pxEventBits = ( EventGroup_t * ) xEventGroup;
 601:Middlewares/Third_Party/FreeRTOS/Source/event_groups.c **** const List_t *pxTasksWaitingForBits = &( pxEventBits->xTasksWaitingForBits );
 602:Middlewares/Third_Party/FreeRTOS/Source/event_groups.c **** 
ARM GAS  C:\Users\Abhinav\AppData\Local\Temp\cc3ESLnv.s 			page 12


 603:Middlewares/Third_Party/FreeRTOS/Source/event_groups.c **** 	vTaskSuspendAll();
 604:Middlewares/Third_Party/FreeRTOS/Source/event_groups.c **** 	{
 605:Middlewares/Third_Party/FreeRTOS/Source/event_groups.c **** 		traceEVENT_GROUP_DELETE( xEventGroup );
 606:Middlewares/Third_Party/FreeRTOS/Source/event_groups.c **** 
 607:Middlewares/Third_Party/FreeRTOS/Source/event_groups.c **** 		while( listCURRENT_LIST_LENGTH( pxTasksWaitingForBits ) > ( UBaseType_t ) 0 )
 608:Middlewares/Third_Party/FreeRTOS/Source/event_groups.c **** 		{
 609:Middlewares/Third_Party/FreeRTOS/Source/event_groups.c **** 			/* Unblock the task, returning 0 as the event list is being deleted
 610:Middlewares/Third_Party/FreeRTOS/Source/event_groups.c **** 			and cannot therefore have any bits set. */
 611:Middlewares/Third_Party/FreeRTOS/Source/event_groups.c **** 			configASSERT( pxTasksWaitingForBits->xListEnd.pxNext != ( const ListItem_t * ) &( pxTasksWaiting
 612:Middlewares/Third_Party/FreeRTOS/Source/event_groups.c **** 			vTaskRemoveFromUnorderedEventList( pxTasksWaitingForBits->xListEnd.pxNext, eventUNBLOCKED_DUE_TO
 613:Middlewares/Third_Party/FreeRTOS/Source/event_groups.c **** 		}
 614:Middlewares/Third_Party/FreeRTOS/Source/event_groups.c **** 
 615:Middlewares/Third_Party/FreeRTOS/Source/event_groups.c **** 		#if( ( configSUPPORT_DYNAMIC_ALLOCATION == 1 ) && ( configSUPPORT_STATIC_ALLOCATION == 0 ) )
 616:Middlewares/Third_Party/FreeRTOS/Source/event_groups.c **** 		{
 617:Middlewares/Third_Party/FreeRTOS/Source/event_groups.c **** 			/* The event group can only have been allocated dynamically - free
 618:Middlewares/Third_Party/FreeRTOS/Source/event_groups.c **** 			it again. */
 619:Middlewares/Third_Party/FreeRTOS/Source/event_groups.c **** 			vPortFree( pxEventBits );
 620:Middlewares/Third_Party/FreeRTOS/Source/event_groups.c **** 		}
 621:Middlewares/Third_Party/FreeRTOS/Source/event_groups.c **** 		#elif( ( configSUPPORT_DYNAMIC_ALLOCATION == 1 ) && ( configSUPPORT_STATIC_ALLOCATION == 1 ) )
 622:Middlewares/Third_Party/FreeRTOS/Source/event_groups.c **** 		{
 623:Middlewares/Third_Party/FreeRTOS/Source/event_groups.c **** 			/* The event group could have been allocated statically or
 624:Middlewares/Third_Party/FreeRTOS/Source/event_groups.c **** 			dynamically, so check before attempting to free the memory. */
 625:Middlewares/Third_Party/FreeRTOS/Source/event_groups.c **** 			if( pxEventBits->ucStaticallyAllocated == ( uint8_t ) pdFALSE )
 626:Middlewares/Third_Party/FreeRTOS/Source/event_groups.c **** 			{
 627:Middlewares/Third_Party/FreeRTOS/Source/event_groups.c **** 				vPortFree( pxEventBits );
 628:Middlewares/Third_Party/FreeRTOS/Source/event_groups.c **** 			}
 629:Middlewares/Third_Party/FreeRTOS/Source/event_groups.c **** 			else
 630:Middlewares/Third_Party/FreeRTOS/Source/event_groups.c **** 			{
 631:Middlewares/Third_Party/FreeRTOS/Source/event_groups.c **** 				mtCOVERAGE_TEST_MARKER();
 632:Middlewares/Third_Party/FreeRTOS/Source/event_groups.c **** 			}
 633:Middlewares/Third_Party/FreeRTOS/Source/event_groups.c **** 		}
 634:Middlewares/Third_Party/FreeRTOS/Source/event_groups.c **** 		#endif /* configSUPPORT_DYNAMIC_ALLOCATION */
 635:Middlewares/Third_Party/FreeRTOS/Source/event_groups.c **** 	}
 636:Middlewares/Third_Party/FreeRTOS/Source/event_groups.c **** 	( void ) xTaskResumeAll();
 637:Middlewares/Third_Party/FreeRTOS/Source/event_groups.c **** }
 638:Middlewares/Third_Party/FreeRTOS/Source/event_groups.c **** /*-----------------------------------------------------------*/
 639:Middlewares/Third_Party/FreeRTOS/Source/event_groups.c **** 
 640:Middlewares/Third_Party/FreeRTOS/Source/event_groups.c **** /* For internal use only - execute a 'set bits' command that was pended from
 641:Middlewares/Third_Party/FreeRTOS/Source/event_groups.c **** an interrupt. */
 642:Middlewares/Third_Party/FreeRTOS/Source/event_groups.c **** void vEventGroupSetBitsCallback( void *pvEventGroup, const uint32_t ulBitsToSet )
 643:Middlewares/Third_Party/FreeRTOS/Source/event_groups.c **** {
 644:Middlewares/Third_Party/FreeRTOS/Source/event_groups.c **** 	( void ) xEventGroupSetBits( pvEventGroup, ( EventBits_t ) ulBitsToSet );
 645:Middlewares/Third_Party/FreeRTOS/Source/event_groups.c **** }
 646:Middlewares/Third_Party/FreeRTOS/Source/event_groups.c **** /*-----------------------------------------------------------*/
 647:Middlewares/Third_Party/FreeRTOS/Source/event_groups.c **** 
 648:Middlewares/Third_Party/FreeRTOS/Source/event_groups.c **** /* For internal use only - execute a 'clear bits' command that was pended from
 649:Middlewares/Third_Party/FreeRTOS/Source/event_groups.c **** an interrupt. */
 650:Middlewares/Third_Party/FreeRTOS/Source/event_groups.c **** void vEventGroupClearBitsCallback( void *pvEventGroup, const uint32_t ulBitsToClear )
 651:Middlewares/Third_Party/FreeRTOS/Source/event_groups.c **** {
 652:Middlewares/Third_Party/FreeRTOS/Source/event_groups.c **** 	( void ) xEventGroupClearBits( pvEventGroup, ( EventBits_t ) ulBitsToClear );
 653:Middlewares/Third_Party/FreeRTOS/Source/event_groups.c **** }
 654:Middlewares/Third_Party/FreeRTOS/Source/event_groups.c **** /*-----------------------------------------------------------*/
 655:Middlewares/Third_Party/FreeRTOS/Source/event_groups.c **** 
 656:Middlewares/Third_Party/FreeRTOS/Source/event_groups.c **** static BaseType_t prvTestWaitCondition( const EventBits_t uxCurrentEventBits, const EventBits_t uxB
 657:Middlewares/Third_Party/FreeRTOS/Source/event_groups.c **** {
  27              		.loc 1 657 1 view -0
  28              		.cfi_startproc
ARM GAS  C:\Users\Abhinav\AppData\Local\Temp\cc3ESLnv.s 			page 13


  29              		@ args = 0, pretend = 0, frame = 0
  30              		@ frame_needed = 0, uses_anonymous_args = 0
  31              		@ link register save eliminated.
 658:Middlewares/Third_Party/FreeRTOS/Source/event_groups.c **** BaseType_t xWaitConditionMet = pdFALSE;
  32              		.loc 1 658 1 view .LVU1
 659:Middlewares/Third_Party/FreeRTOS/Source/event_groups.c **** 
 660:Middlewares/Third_Party/FreeRTOS/Source/event_groups.c **** 	if( xWaitForAllBits == pdFALSE )
  33              		.loc 1 660 2 view .LVU2
  34              		.loc 1 660 4 is_stmt 0 view .LVU3
  35 0000 1AB9     		cbnz	r2, .L2
 661:Middlewares/Third_Party/FreeRTOS/Source/event_groups.c **** 	{
 662:Middlewares/Third_Party/FreeRTOS/Source/event_groups.c **** 		/* Task only has to wait for one bit within uxBitsToWaitFor to be
 663:Middlewares/Third_Party/FreeRTOS/Source/event_groups.c **** 		set.  Is one already set? */
 664:Middlewares/Third_Party/FreeRTOS/Source/event_groups.c **** 		if( ( uxCurrentEventBits & uxBitsToWaitFor ) != ( EventBits_t ) 0 )
  36              		.loc 1 664 3 is_stmt 1 view .LVU4
  37              		.loc 1 664 5 is_stmt 0 view .LVU5
  38 0002 0842     		tst	r0, r1
  39 0004 05D1     		bne	.L4
 658:Middlewares/Third_Party/FreeRTOS/Source/event_groups.c **** 
  40              		.loc 1 658 12 view .LVU6
  41 0006 1046     		mov	r0, r2
  42              	.LVL1:
 658:Middlewares/Third_Party/FreeRTOS/Source/event_groups.c **** 
  43              		.loc 1 658 12 view .LVU7
  44 0008 7047     		bx	lr
  45              	.LVL2:
  46              	.L2:
 665:Middlewares/Third_Party/FreeRTOS/Source/event_groups.c **** 		{
 666:Middlewares/Third_Party/FreeRTOS/Source/event_groups.c **** 			xWaitConditionMet = pdTRUE;
 667:Middlewares/Third_Party/FreeRTOS/Source/event_groups.c **** 		}
 668:Middlewares/Third_Party/FreeRTOS/Source/event_groups.c **** 		else
 669:Middlewares/Third_Party/FreeRTOS/Source/event_groups.c **** 		{
 670:Middlewares/Third_Party/FreeRTOS/Source/event_groups.c **** 			mtCOVERAGE_TEST_MARKER();
 671:Middlewares/Third_Party/FreeRTOS/Source/event_groups.c **** 		}
 672:Middlewares/Third_Party/FreeRTOS/Source/event_groups.c **** 	}
 673:Middlewares/Third_Party/FreeRTOS/Source/event_groups.c **** 	else
 674:Middlewares/Third_Party/FreeRTOS/Source/event_groups.c **** 	{
 675:Middlewares/Third_Party/FreeRTOS/Source/event_groups.c **** 		/* Task has to wait for all the bits in uxBitsToWaitFor to be set.
 676:Middlewares/Third_Party/FreeRTOS/Source/event_groups.c **** 		Are they set already? */
 677:Middlewares/Third_Party/FreeRTOS/Source/event_groups.c **** 		if( ( uxCurrentEventBits & uxBitsToWaitFor ) == uxBitsToWaitFor )
  47              		.loc 1 677 3 is_stmt 1 view .LVU8
  48              		.loc 1 677 5 is_stmt 0 view .LVU9
  49 000a 8143     		bics	r1, r1, r0
  50              	.LVL3:
  51              		.loc 1 677 5 view .LVU10
  52 000c 03D0     		beq	.L5
 658:Middlewares/Third_Party/FreeRTOS/Source/event_groups.c **** 
  53              		.loc 1 658 12 view .LVU11
  54 000e 0020     		movs	r0, #0
  55              	.LVL4:
 658:Middlewares/Third_Party/FreeRTOS/Source/event_groups.c **** 
  56              		.loc 1 658 12 view .LVU12
  57 0010 7047     		bx	lr
  58              	.LVL5:
  59              	.L4:
 666:Middlewares/Third_Party/FreeRTOS/Source/event_groups.c **** 		}
  60              		.loc 1 666 22 view .LVU13
ARM GAS  C:\Users\Abhinav\AppData\Local\Temp\cc3ESLnv.s 			page 14


  61 0012 0120     		movs	r0, #1
  62              	.LVL6:
 666:Middlewares/Third_Party/FreeRTOS/Source/event_groups.c **** 		}
  63              		.loc 1 666 22 view .LVU14
  64 0014 7047     		bx	lr
  65              	.LVL7:
  66              	.L5:
 678:Middlewares/Third_Party/FreeRTOS/Source/event_groups.c **** 		{
 679:Middlewares/Third_Party/FreeRTOS/Source/event_groups.c **** 			xWaitConditionMet = pdTRUE;
  67              		.loc 1 679 22 view .LVU15
  68 0016 0120     		movs	r0, #1
  69              	.LVL8:
 680:Middlewares/Third_Party/FreeRTOS/Source/event_groups.c **** 		}
 681:Middlewares/Third_Party/FreeRTOS/Source/event_groups.c **** 		else
 682:Middlewares/Third_Party/FreeRTOS/Source/event_groups.c **** 		{
 683:Middlewares/Third_Party/FreeRTOS/Source/event_groups.c **** 			mtCOVERAGE_TEST_MARKER();
  70              		.loc 1 683 28 is_stmt 1 view .LVU16
 684:Middlewares/Third_Party/FreeRTOS/Source/event_groups.c **** 		}
 685:Middlewares/Third_Party/FreeRTOS/Source/event_groups.c **** 	}
 686:Middlewares/Third_Party/FreeRTOS/Source/event_groups.c **** 
 687:Middlewares/Third_Party/FreeRTOS/Source/event_groups.c **** 	return xWaitConditionMet;
  71              		.loc 1 687 2 view .LVU17
 688:Middlewares/Third_Party/FreeRTOS/Source/event_groups.c **** }
  72              		.loc 1 688 1 is_stmt 0 view .LVU18
  73 0018 7047     		bx	lr
  74              		.cfi_endproc
  75              	.LFE15:
  77              		.section	.text.xEventGroupCreateStatic,"ax",%progbits
  78              		.align	1
  79              		.global	xEventGroupCreateStatic
  80              		.syntax unified
  81              		.thumb
  82              		.thumb_func
  84              	xEventGroupCreateStatic:
  85              	.LVL9:
  86              	.LFB4:
  94:Middlewares/Third_Party/FreeRTOS/Source/event_groups.c **** 	EventGroup_t *pxEventBits;
  87              		.loc 1 94 2 is_stmt 1 view -0
  88              		.cfi_startproc
  89              		@ args = 0, pretend = 0, frame = 8
  90              		@ frame_needed = 0, uses_anonymous_args = 0
  95:Middlewares/Third_Party/FreeRTOS/Source/event_groups.c **** 
  91              		.loc 1 95 2 view .LVU20
  98:Middlewares/Third_Party/FreeRTOS/Source/event_groups.c **** 
  92              		.loc 1 98 3 view .LVU21
  93 0000 80B1     		cbz	r0, .L13
  94:Middlewares/Third_Party/FreeRTOS/Source/event_groups.c **** 	EventGroup_t *pxEventBits;
  94              		.loc 1 94 2 is_stmt 0 discriminator 2 view .LVU22
  95 0002 10B5     		push	{r4, lr}
  96              		.cfi_def_cfa_offset 8
  97              		.cfi_offset 4, -8
  98              		.cfi_offset 14, -4
  99 0004 82B0     		sub	sp, sp, #8
 100              		.cfi_def_cfa_offset 16
 101 0006 0446     		mov	r4, r0
  98:Middlewares/Third_Party/FreeRTOS/Source/event_groups.c **** 
 102              		.loc 1 98 37 is_stmt 1 discriminator 2 view .LVU23
ARM GAS  C:\Users\Abhinav\AppData\Local\Temp\cc3ESLnv.s 			page 15


 103              	.LBB36:
 105:Middlewares/Third_Party/FreeRTOS/Source/event_groups.c **** 			configASSERT( xSize == sizeof( EventGroup_t ) );
 104              		.loc 1 105 4 discriminator 2 view .LVU24
 105:Middlewares/Third_Party/FreeRTOS/Source/event_groups.c **** 			configASSERT( xSize == sizeof( EventGroup_t ) );
 105              		.loc 1 105 20 is_stmt 0 discriminator 2 view .LVU25
 106 0008 2023     		movs	r3, #32
 107 000a 0193     		str	r3, [sp, #4]
 106:Middlewares/Third_Party/FreeRTOS/Source/event_groups.c **** 		}
 108              		.loc 1 106 4 is_stmt 1 discriminator 2 view .LVU26
 109 000c 019B     		ldr	r3, [sp, #4]
 110 000e 202B     		cmp	r3, #32
 111 0010 11D0     		beq	.L9
 106:Middlewares/Third_Party/FreeRTOS/Source/event_groups.c **** 		}
 112              		.loc 1 106 4 view .LVU27
 113              	.LBB37:
 114              	.LBI37:
 115              		.file 2 "Middlewares/Third_Party/FreeRTOS/Source/portable/GCC/ARM_CM3/portmacro.h"
   1:Middlewares/Third_Party/FreeRTOS/Source/portable/GCC/ARM_CM3/portmacro.h **** /*
   2:Middlewares/Third_Party/FreeRTOS/Source/portable/GCC/ARM_CM3/portmacro.h ****  * FreeRTOS Kernel V10.0.1
   3:Middlewares/Third_Party/FreeRTOS/Source/portable/GCC/ARM_CM3/portmacro.h ****  * Copyright (C) 2017 Amazon.com, Inc. or its affiliates.  All Rights Reserved.
   4:Middlewares/Third_Party/FreeRTOS/Source/portable/GCC/ARM_CM3/portmacro.h ****  *
   5:Middlewares/Third_Party/FreeRTOS/Source/portable/GCC/ARM_CM3/portmacro.h ****  * Permission is hereby granted, free of charge, to any person obtaining a copy of
   6:Middlewares/Third_Party/FreeRTOS/Source/portable/GCC/ARM_CM3/portmacro.h ****  * this software and associated documentation files (the "Software"), to deal in
   7:Middlewares/Third_Party/FreeRTOS/Source/portable/GCC/ARM_CM3/portmacro.h ****  * the Software without restriction, including without limitation the rights to
   8:Middlewares/Third_Party/FreeRTOS/Source/portable/GCC/ARM_CM3/portmacro.h ****  * use, copy, modify, merge, publish, distribute, sublicense, and/or sell copies of
   9:Middlewares/Third_Party/FreeRTOS/Source/portable/GCC/ARM_CM3/portmacro.h ****  * the Software, and to permit persons to whom the Software is furnished to do so,
  10:Middlewares/Third_Party/FreeRTOS/Source/portable/GCC/ARM_CM3/portmacro.h ****  * subject to the following conditions:
  11:Middlewares/Third_Party/FreeRTOS/Source/portable/GCC/ARM_CM3/portmacro.h ****  *
  12:Middlewares/Third_Party/FreeRTOS/Source/portable/GCC/ARM_CM3/portmacro.h ****  * The above copyright notice and this permission notice shall be included in all
  13:Middlewares/Third_Party/FreeRTOS/Source/portable/GCC/ARM_CM3/portmacro.h ****  * copies or substantial portions of the Software.
  14:Middlewares/Third_Party/FreeRTOS/Source/portable/GCC/ARM_CM3/portmacro.h ****  *
  15:Middlewares/Third_Party/FreeRTOS/Source/portable/GCC/ARM_CM3/portmacro.h ****  * THE SOFTWARE IS PROVIDED "AS IS", WITHOUT WARRANTY OF ANY KIND, EXPRESS OR
  16:Middlewares/Third_Party/FreeRTOS/Source/portable/GCC/ARM_CM3/portmacro.h ****  * IMPLIED, INCLUDING BUT NOT LIMITED TO THE WARRANTIES OF MERCHANTABILITY, FITNESS
  17:Middlewares/Third_Party/FreeRTOS/Source/portable/GCC/ARM_CM3/portmacro.h ****  * FOR A PARTICULAR PURPOSE AND NONINFRINGEMENT. IN NO EVENT SHALL THE AUTHORS OR
  18:Middlewares/Third_Party/FreeRTOS/Source/portable/GCC/ARM_CM3/portmacro.h ****  * COPYRIGHT HOLDERS BE LIABLE FOR ANY CLAIM, DAMAGES OR OTHER LIABILITY, WHETHER
  19:Middlewares/Third_Party/FreeRTOS/Source/portable/GCC/ARM_CM3/portmacro.h ****  * IN AN ACTION OF CONTRACT, TORT OR OTHERWISE, ARISING FROM, OUT OF OR IN
  20:Middlewares/Third_Party/FreeRTOS/Source/portable/GCC/ARM_CM3/portmacro.h ****  * CONNECTION WITH THE SOFTWARE OR THE USE OR OTHER DEALINGS IN THE SOFTWARE.
  21:Middlewares/Third_Party/FreeRTOS/Source/portable/GCC/ARM_CM3/portmacro.h ****  *
  22:Middlewares/Third_Party/FreeRTOS/Source/portable/GCC/ARM_CM3/portmacro.h ****  * http://www.FreeRTOS.org
  23:Middlewares/Third_Party/FreeRTOS/Source/portable/GCC/ARM_CM3/portmacro.h ****  * http://aws.amazon.com/freertos
  24:Middlewares/Third_Party/FreeRTOS/Source/portable/GCC/ARM_CM3/portmacro.h ****  *
  25:Middlewares/Third_Party/FreeRTOS/Source/portable/GCC/ARM_CM3/portmacro.h ****  * 1 tab == 4 spaces!
  26:Middlewares/Third_Party/FreeRTOS/Source/portable/GCC/ARM_CM3/portmacro.h ****  */
  27:Middlewares/Third_Party/FreeRTOS/Source/portable/GCC/ARM_CM3/portmacro.h **** 
  28:Middlewares/Third_Party/FreeRTOS/Source/portable/GCC/ARM_CM3/portmacro.h **** 
  29:Middlewares/Third_Party/FreeRTOS/Source/portable/GCC/ARM_CM3/portmacro.h **** #ifndef PORTMACRO_H
  30:Middlewares/Third_Party/FreeRTOS/Source/portable/GCC/ARM_CM3/portmacro.h **** #define PORTMACRO_H
  31:Middlewares/Third_Party/FreeRTOS/Source/portable/GCC/ARM_CM3/portmacro.h **** 
  32:Middlewares/Third_Party/FreeRTOS/Source/portable/GCC/ARM_CM3/portmacro.h **** #ifdef __cplusplus
  33:Middlewares/Third_Party/FreeRTOS/Source/portable/GCC/ARM_CM3/portmacro.h **** extern "C" {
  34:Middlewares/Third_Party/FreeRTOS/Source/portable/GCC/ARM_CM3/portmacro.h **** #endif
  35:Middlewares/Third_Party/FreeRTOS/Source/portable/GCC/ARM_CM3/portmacro.h **** 
  36:Middlewares/Third_Party/FreeRTOS/Source/portable/GCC/ARM_CM3/portmacro.h **** /*-----------------------------------------------------------
  37:Middlewares/Third_Party/FreeRTOS/Source/portable/GCC/ARM_CM3/portmacro.h ****  * Port specific definitions.
  38:Middlewares/Third_Party/FreeRTOS/Source/portable/GCC/ARM_CM3/portmacro.h ****  *
  39:Middlewares/Third_Party/FreeRTOS/Source/portable/GCC/ARM_CM3/portmacro.h ****  * The settings in this file configure FreeRTOS correctly for the
  40:Middlewares/Third_Party/FreeRTOS/Source/portable/GCC/ARM_CM3/portmacro.h ****  * given hardware and compiler.
ARM GAS  C:\Users\Abhinav\AppData\Local\Temp\cc3ESLnv.s 			page 16


  41:Middlewares/Third_Party/FreeRTOS/Source/portable/GCC/ARM_CM3/portmacro.h ****  *
  42:Middlewares/Third_Party/FreeRTOS/Source/portable/GCC/ARM_CM3/portmacro.h ****  * These settings should not be altered.
  43:Middlewares/Third_Party/FreeRTOS/Source/portable/GCC/ARM_CM3/portmacro.h ****  *-----------------------------------------------------------
  44:Middlewares/Third_Party/FreeRTOS/Source/portable/GCC/ARM_CM3/portmacro.h ****  */
  45:Middlewares/Third_Party/FreeRTOS/Source/portable/GCC/ARM_CM3/portmacro.h **** 
  46:Middlewares/Third_Party/FreeRTOS/Source/portable/GCC/ARM_CM3/portmacro.h **** /* Type definitions. */
  47:Middlewares/Third_Party/FreeRTOS/Source/portable/GCC/ARM_CM3/portmacro.h **** #define portCHAR		char
  48:Middlewares/Third_Party/FreeRTOS/Source/portable/GCC/ARM_CM3/portmacro.h **** #define portFLOAT		float
  49:Middlewares/Third_Party/FreeRTOS/Source/portable/GCC/ARM_CM3/portmacro.h **** #define portDOUBLE		double
  50:Middlewares/Third_Party/FreeRTOS/Source/portable/GCC/ARM_CM3/portmacro.h **** #define portLONG		long
  51:Middlewares/Third_Party/FreeRTOS/Source/portable/GCC/ARM_CM3/portmacro.h **** #define portSHORT		short
  52:Middlewares/Third_Party/FreeRTOS/Source/portable/GCC/ARM_CM3/portmacro.h **** #define portSTACK_TYPE	uint32_t
  53:Middlewares/Third_Party/FreeRTOS/Source/portable/GCC/ARM_CM3/portmacro.h **** #define portBASE_TYPE	long
  54:Middlewares/Third_Party/FreeRTOS/Source/portable/GCC/ARM_CM3/portmacro.h **** 
  55:Middlewares/Third_Party/FreeRTOS/Source/portable/GCC/ARM_CM3/portmacro.h **** typedef portSTACK_TYPE StackType_t;
  56:Middlewares/Third_Party/FreeRTOS/Source/portable/GCC/ARM_CM3/portmacro.h **** typedef long BaseType_t;
  57:Middlewares/Third_Party/FreeRTOS/Source/portable/GCC/ARM_CM3/portmacro.h **** typedef unsigned long UBaseType_t;
  58:Middlewares/Third_Party/FreeRTOS/Source/portable/GCC/ARM_CM3/portmacro.h **** 
  59:Middlewares/Third_Party/FreeRTOS/Source/portable/GCC/ARM_CM3/portmacro.h **** #if( configUSE_16_BIT_TICKS == 1 )
  60:Middlewares/Third_Party/FreeRTOS/Source/portable/GCC/ARM_CM3/portmacro.h **** 	typedef uint16_t TickType_t;
  61:Middlewares/Third_Party/FreeRTOS/Source/portable/GCC/ARM_CM3/portmacro.h **** 	#define portMAX_DELAY ( TickType_t ) 0xffff
  62:Middlewares/Third_Party/FreeRTOS/Source/portable/GCC/ARM_CM3/portmacro.h **** #else
  63:Middlewares/Third_Party/FreeRTOS/Source/portable/GCC/ARM_CM3/portmacro.h **** 	typedef uint32_t TickType_t;
  64:Middlewares/Third_Party/FreeRTOS/Source/portable/GCC/ARM_CM3/portmacro.h **** 	#define portMAX_DELAY ( TickType_t ) 0xffffffffUL
  65:Middlewares/Third_Party/FreeRTOS/Source/portable/GCC/ARM_CM3/portmacro.h **** 
  66:Middlewares/Third_Party/FreeRTOS/Source/portable/GCC/ARM_CM3/portmacro.h **** 	/* 32-bit tick type on a 32-bit architecture, so reads of the tick count do
  67:Middlewares/Third_Party/FreeRTOS/Source/portable/GCC/ARM_CM3/portmacro.h **** 	not need to be guarded with a critical section. */
  68:Middlewares/Third_Party/FreeRTOS/Source/portable/GCC/ARM_CM3/portmacro.h **** 	#define portTICK_TYPE_IS_ATOMIC 1
  69:Middlewares/Third_Party/FreeRTOS/Source/portable/GCC/ARM_CM3/portmacro.h **** #endif
  70:Middlewares/Third_Party/FreeRTOS/Source/portable/GCC/ARM_CM3/portmacro.h **** /*-----------------------------------------------------------*/
  71:Middlewares/Third_Party/FreeRTOS/Source/portable/GCC/ARM_CM3/portmacro.h **** 
  72:Middlewares/Third_Party/FreeRTOS/Source/portable/GCC/ARM_CM3/portmacro.h **** /* Architecture specifics. */
  73:Middlewares/Third_Party/FreeRTOS/Source/portable/GCC/ARM_CM3/portmacro.h **** #define portSTACK_GROWTH			( -1 )
  74:Middlewares/Third_Party/FreeRTOS/Source/portable/GCC/ARM_CM3/portmacro.h **** #define portTICK_PERIOD_MS			( ( TickType_t ) 1000 / configTICK_RATE_HZ )
  75:Middlewares/Third_Party/FreeRTOS/Source/portable/GCC/ARM_CM3/portmacro.h **** #define portBYTE_ALIGNMENT			8
  76:Middlewares/Third_Party/FreeRTOS/Source/portable/GCC/ARM_CM3/portmacro.h **** /*-----------------------------------------------------------*/
  77:Middlewares/Third_Party/FreeRTOS/Source/portable/GCC/ARM_CM3/portmacro.h **** 
  78:Middlewares/Third_Party/FreeRTOS/Source/portable/GCC/ARM_CM3/portmacro.h **** /* Scheduler utilities. */
  79:Middlewares/Third_Party/FreeRTOS/Source/portable/GCC/ARM_CM3/portmacro.h **** #define portYIELD() 															\
  80:Middlewares/Third_Party/FreeRTOS/Source/portable/GCC/ARM_CM3/portmacro.h **** {																				\
  81:Middlewares/Third_Party/FreeRTOS/Source/portable/GCC/ARM_CM3/portmacro.h **** 	/* Set a PendSV to request a context switch. */								\
  82:Middlewares/Third_Party/FreeRTOS/Source/portable/GCC/ARM_CM3/portmacro.h **** 	portNVIC_INT_CTRL_REG = portNVIC_PENDSVSET_BIT;								\
  83:Middlewares/Third_Party/FreeRTOS/Source/portable/GCC/ARM_CM3/portmacro.h **** 																				\
  84:Middlewares/Third_Party/FreeRTOS/Source/portable/GCC/ARM_CM3/portmacro.h **** 	/* Barriers are normally not required but do ensure the code is completely	\
  85:Middlewares/Third_Party/FreeRTOS/Source/portable/GCC/ARM_CM3/portmacro.h **** 	within the specified behaviour for the architecture. */						\
  86:Middlewares/Third_Party/FreeRTOS/Source/portable/GCC/ARM_CM3/portmacro.h **** 	__asm volatile( "dsb" ::: "memory" );										\
  87:Middlewares/Third_Party/FreeRTOS/Source/portable/GCC/ARM_CM3/portmacro.h **** 	__asm volatile( "isb" );													\
  88:Middlewares/Third_Party/FreeRTOS/Source/portable/GCC/ARM_CM3/portmacro.h **** }
  89:Middlewares/Third_Party/FreeRTOS/Source/portable/GCC/ARM_CM3/portmacro.h **** 
  90:Middlewares/Third_Party/FreeRTOS/Source/portable/GCC/ARM_CM3/portmacro.h **** #define portNVIC_INT_CTRL_REG		( * ( ( volatile uint32_t * ) 0xe000ed04 ) )
  91:Middlewares/Third_Party/FreeRTOS/Source/portable/GCC/ARM_CM3/portmacro.h **** #define portNVIC_PENDSVSET_BIT		( 1UL << 28UL )
  92:Middlewares/Third_Party/FreeRTOS/Source/portable/GCC/ARM_CM3/portmacro.h **** #define portEND_SWITCHING_ISR( xSwitchRequired ) if( xSwitchRequired != pdFALSE ) portYIELD()
  93:Middlewares/Third_Party/FreeRTOS/Source/portable/GCC/ARM_CM3/portmacro.h **** #define portYIELD_FROM_ISR( x ) portEND_SWITCHING_ISR( x )
  94:Middlewares/Third_Party/FreeRTOS/Source/portable/GCC/ARM_CM3/portmacro.h **** /*-----------------------------------------------------------*/
  95:Middlewares/Third_Party/FreeRTOS/Source/portable/GCC/ARM_CM3/portmacro.h **** 
  96:Middlewares/Third_Party/FreeRTOS/Source/portable/GCC/ARM_CM3/portmacro.h **** /* Critical section management. */
  97:Middlewares/Third_Party/FreeRTOS/Source/portable/GCC/ARM_CM3/portmacro.h **** extern void vPortEnterCritical( void );
ARM GAS  C:\Users\Abhinav\AppData\Local\Temp\cc3ESLnv.s 			page 17


  98:Middlewares/Third_Party/FreeRTOS/Source/portable/GCC/ARM_CM3/portmacro.h **** extern void vPortExitCritical( void );
  99:Middlewares/Third_Party/FreeRTOS/Source/portable/GCC/ARM_CM3/portmacro.h **** #define portSET_INTERRUPT_MASK_FROM_ISR()		ulPortRaiseBASEPRI()
 100:Middlewares/Third_Party/FreeRTOS/Source/portable/GCC/ARM_CM3/portmacro.h **** #define portCLEAR_INTERRUPT_MASK_FROM_ISR(x)	vPortSetBASEPRI(x)
 101:Middlewares/Third_Party/FreeRTOS/Source/portable/GCC/ARM_CM3/portmacro.h **** #define portDISABLE_INTERRUPTS()				vPortRaiseBASEPRI()
 102:Middlewares/Third_Party/FreeRTOS/Source/portable/GCC/ARM_CM3/portmacro.h **** #define portENABLE_INTERRUPTS()					vPortSetBASEPRI(0)
 103:Middlewares/Third_Party/FreeRTOS/Source/portable/GCC/ARM_CM3/portmacro.h **** #define portENTER_CRITICAL()					vPortEnterCritical()
 104:Middlewares/Third_Party/FreeRTOS/Source/portable/GCC/ARM_CM3/portmacro.h **** #define portEXIT_CRITICAL()						vPortExitCritical()
 105:Middlewares/Third_Party/FreeRTOS/Source/portable/GCC/ARM_CM3/portmacro.h **** 
 106:Middlewares/Third_Party/FreeRTOS/Source/portable/GCC/ARM_CM3/portmacro.h **** /*-----------------------------------------------------------*/
 107:Middlewares/Third_Party/FreeRTOS/Source/portable/GCC/ARM_CM3/portmacro.h **** 
 108:Middlewares/Third_Party/FreeRTOS/Source/portable/GCC/ARM_CM3/portmacro.h **** /* Task function macros as described on the FreeRTOS.org WEB site.  These are
 109:Middlewares/Third_Party/FreeRTOS/Source/portable/GCC/ARM_CM3/portmacro.h **** not necessary for to use this port.  They are defined so the common demo files
 110:Middlewares/Third_Party/FreeRTOS/Source/portable/GCC/ARM_CM3/portmacro.h **** (which build with all the ports) will build. */
 111:Middlewares/Third_Party/FreeRTOS/Source/portable/GCC/ARM_CM3/portmacro.h **** #define portTASK_FUNCTION_PROTO( vFunction, pvParameters ) void vFunction( void *pvParameters )
 112:Middlewares/Third_Party/FreeRTOS/Source/portable/GCC/ARM_CM3/portmacro.h **** #define portTASK_FUNCTION( vFunction, pvParameters ) void vFunction( void *pvParameters )
 113:Middlewares/Third_Party/FreeRTOS/Source/portable/GCC/ARM_CM3/portmacro.h **** /*-----------------------------------------------------------*/
 114:Middlewares/Third_Party/FreeRTOS/Source/portable/GCC/ARM_CM3/portmacro.h **** 
 115:Middlewares/Third_Party/FreeRTOS/Source/portable/GCC/ARM_CM3/portmacro.h **** /* Tickless idle/low power functionality. */
 116:Middlewares/Third_Party/FreeRTOS/Source/portable/GCC/ARM_CM3/portmacro.h **** #ifndef portSUPPRESS_TICKS_AND_SLEEP
 117:Middlewares/Third_Party/FreeRTOS/Source/portable/GCC/ARM_CM3/portmacro.h **** 	extern void vPortSuppressTicksAndSleep( TickType_t xExpectedIdleTime );
 118:Middlewares/Third_Party/FreeRTOS/Source/portable/GCC/ARM_CM3/portmacro.h **** 	#define portSUPPRESS_TICKS_AND_SLEEP( xExpectedIdleTime ) vPortSuppressTicksAndSleep( xExpectedIdl
 119:Middlewares/Third_Party/FreeRTOS/Source/portable/GCC/ARM_CM3/portmacro.h **** #endif
 120:Middlewares/Third_Party/FreeRTOS/Source/portable/GCC/ARM_CM3/portmacro.h **** /*-----------------------------------------------------------*/
 121:Middlewares/Third_Party/FreeRTOS/Source/portable/GCC/ARM_CM3/portmacro.h **** 
 122:Middlewares/Third_Party/FreeRTOS/Source/portable/GCC/ARM_CM3/portmacro.h **** /* Architecture specific optimisations. */
 123:Middlewares/Third_Party/FreeRTOS/Source/portable/GCC/ARM_CM3/portmacro.h **** #ifndef configUSE_PORT_OPTIMISED_TASK_SELECTION
 124:Middlewares/Third_Party/FreeRTOS/Source/portable/GCC/ARM_CM3/portmacro.h **** 	#define configUSE_PORT_OPTIMISED_TASK_SELECTION 1
 125:Middlewares/Third_Party/FreeRTOS/Source/portable/GCC/ARM_CM3/portmacro.h **** #endif
 126:Middlewares/Third_Party/FreeRTOS/Source/portable/GCC/ARM_CM3/portmacro.h **** 
 127:Middlewares/Third_Party/FreeRTOS/Source/portable/GCC/ARM_CM3/portmacro.h **** #if configUSE_PORT_OPTIMISED_TASK_SELECTION == 1
 128:Middlewares/Third_Party/FreeRTOS/Source/portable/GCC/ARM_CM3/portmacro.h **** 
 129:Middlewares/Third_Party/FreeRTOS/Source/portable/GCC/ARM_CM3/portmacro.h **** 	/* Generic helper function. */
 130:Middlewares/Third_Party/FreeRTOS/Source/portable/GCC/ARM_CM3/portmacro.h **** 	__attribute__( ( always_inline ) ) static inline uint8_t ucPortCountLeadingZeros( uint32_t ulBitma
 131:Middlewares/Third_Party/FreeRTOS/Source/portable/GCC/ARM_CM3/portmacro.h **** 	{
 132:Middlewares/Third_Party/FreeRTOS/Source/portable/GCC/ARM_CM3/portmacro.h **** 	uint8_t ucReturn;
 133:Middlewares/Third_Party/FreeRTOS/Source/portable/GCC/ARM_CM3/portmacro.h **** 
 134:Middlewares/Third_Party/FreeRTOS/Source/portable/GCC/ARM_CM3/portmacro.h **** 		__asm volatile ( "clz %0, %1" : "=r" ( ucReturn ) : "r" ( ulBitmap ) : "memory" );
 135:Middlewares/Third_Party/FreeRTOS/Source/portable/GCC/ARM_CM3/portmacro.h **** 		return ucReturn;
 136:Middlewares/Third_Party/FreeRTOS/Source/portable/GCC/ARM_CM3/portmacro.h **** 	}
 137:Middlewares/Third_Party/FreeRTOS/Source/portable/GCC/ARM_CM3/portmacro.h **** 
 138:Middlewares/Third_Party/FreeRTOS/Source/portable/GCC/ARM_CM3/portmacro.h **** 	/* Check the configuration. */
 139:Middlewares/Third_Party/FreeRTOS/Source/portable/GCC/ARM_CM3/portmacro.h **** 	#if( configMAX_PRIORITIES > 32 )
 140:Middlewares/Third_Party/FreeRTOS/Source/portable/GCC/ARM_CM3/portmacro.h **** 		#error configUSE_PORT_OPTIMISED_TASK_SELECTION can only be set to 1 when configMAX_PRIORITIES is 
 141:Middlewares/Third_Party/FreeRTOS/Source/portable/GCC/ARM_CM3/portmacro.h **** 	#endif
 142:Middlewares/Third_Party/FreeRTOS/Source/portable/GCC/ARM_CM3/portmacro.h **** 
 143:Middlewares/Third_Party/FreeRTOS/Source/portable/GCC/ARM_CM3/portmacro.h **** 	/* Store/clear the ready priorities in a bit map. */
 144:Middlewares/Third_Party/FreeRTOS/Source/portable/GCC/ARM_CM3/portmacro.h **** 	#define portRECORD_READY_PRIORITY( uxPriority, uxReadyPriorities ) ( uxReadyPriorities ) |= ( 1UL 
 145:Middlewares/Third_Party/FreeRTOS/Source/portable/GCC/ARM_CM3/portmacro.h **** 	#define portRESET_READY_PRIORITY( uxPriority, uxReadyPriorities ) ( uxReadyPriorities ) &= ~( 1UL 
 146:Middlewares/Third_Party/FreeRTOS/Source/portable/GCC/ARM_CM3/portmacro.h **** 
 147:Middlewares/Third_Party/FreeRTOS/Source/portable/GCC/ARM_CM3/portmacro.h **** 	/*-----------------------------------------------------------*/
 148:Middlewares/Third_Party/FreeRTOS/Source/portable/GCC/ARM_CM3/portmacro.h **** 
 149:Middlewares/Third_Party/FreeRTOS/Source/portable/GCC/ARM_CM3/portmacro.h **** 	#define portGET_HIGHEST_PRIORITY( uxTopPriority, uxReadyPriorities ) uxTopPriority = ( 31UL - ( ui
 150:Middlewares/Third_Party/FreeRTOS/Source/portable/GCC/ARM_CM3/portmacro.h **** 
 151:Middlewares/Third_Party/FreeRTOS/Source/portable/GCC/ARM_CM3/portmacro.h **** #endif /* configUSE_PORT_OPTIMISED_TASK_SELECTION */
 152:Middlewares/Third_Party/FreeRTOS/Source/portable/GCC/ARM_CM3/portmacro.h **** 
 153:Middlewares/Third_Party/FreeRTOS/Source/portable/GCC/ARM_CM3/portmacro.h **** /*-----------------------------------------------------------*/
 154:Middlewares/Third_Party/FreeRTOS/Source/portable/GCC/ARM_CM3/portmacro.h **** 
ARM GAS  C:\Users\Abhinav\AppData\Local\Temp\cc3ESLnv.s 			page 18


 155:Middlewares/Third_Party/FreeRTOS/Source/portable/GCC/ARM_CM3/portmacro.h **** #ifdef configASSERT
 156:Middlewares/Third_Party/FreeRTOS/Source/portable/GCC/ARM_CM3/portmacro.h **** 	void vPortValidateInterruptPriority( void );
 157:Middlewares/Third_Party/FreeRTOS/Source/portable/GCC/ARM_CM3/portmacro.h **** 	#define portASSERT_IF_INTERRUPT_PRIORITY_INVALID() 	vPortValidateInterruptPriority()
 158:Middlewares/Third_Party/FreeRTOS/Source/portable/GCC/ARM_CM3/portmacro.h **** #endif
 159:Middlewares/Third_Party/FreeRTOS/Source/portable/GCC/ARM_CM3/portmacro.h **** 
 160:Middlewares/Third_Party/FreeRTOS/Source/portable/GCC/ARM_CM3/portmacro.h **** /* portNOP() is not required by this port. */
 161:Middlewares/Third_Party/FreeRTOS/Source/portable/GCC/ARM_CM3/portmacro.h **** #define portNOP()
 162:Middlewares/Third_Party/FreeRTOS/Source/portable/GCC/ARM_CM3/portmacro.h **** 
 163:Middlewares/Third_Party/FreeRTOS/Source/portable/GCC/ARM_CM3/portmacro.h **** #define portINLINE	__inline
 164:Middlewares/Third_Party/FreeRTOS/Source/portable/GCC/ARM_CM3/portmacro.h **** 
 165:Middlewares/Third_Party/FreeRTOS/Source/portable/GCC/ARM_CM3/portmacro.h **** #ifndef portFORCE_INLINE
 166:Middlewares/Third_Party/FreeRTOS/Source/portable/GCC/ARM_CM3/portmacro.h **** 	#define portFORCE_INLINE inline __attribute__(( always_inline))
 167:Middlewares/Third_Party/FreeRTOS/Source/portable/GCC/ARM_CM3/portmacro.h **** #endif
 168:Middlewares/Third_Party/FreeRTOS/Source/portable/GCC/ARM_CM3/portmacro.h **** 
 169:Middlewares/Third_Party/FreeRTOS/Source/portable/GCC/ARM_CM3/portmacro.h **** portFORCE_INLINE static BaseType_t xPortIsInsideInterrupt( void )
 170:Middlewares/Third_Party/FreeRTOS/Source/portable/GCC/ARM_CM3/portmacro.h **** {
 171:Middlewares/Third_Party/FreeRTOS/Source/portable/GCC/ARM_CM3/portmacro.h **** uint32_t ulCurrentInterrupt;
 172:Middlewares/Third_Party/FreeRTOS/Source/portable/GCC/ARM_CM3/portmacro.h **** BaseType_t xReturn;
 173:Middlewares/Third_Party/FreeRTOS/Source/portable/GCC/ARM_CM3/portmacro.h **** 
 174:Middlewares/Third_Party/FreeRTOS/Source/portable/GCC/ARM_CM3/portmacro.h **** 	/* Obtain the number of the currently executing interrupt. */
 175:Middlewares/Third_Party/FreeRTOS/Source/portable/GCC/ARM_CM3/portmacro.h **** 	__asm volatile( "mrs %0, ipsr" : "=r"( ulCurrentInterrupt ) :: "memory" );
 176:Middlewares/Third_Party/FreeRTOS/Source/portable/GCC/ARM_CM3/portmacro.h **** 
 177:Middlewares/Third_Party/FreeRTOS/Source/portable/GCC/ARM_CM3/portmacro.h **** 	if( ulCurrentInterrupt == 0 )
 178:Middlewares/Third_Party/FreeRTOS/Source/portable/GCC/ARM_CM3/portmacro.h **** 	{
 179:Middlewares/Third_Party/FreeRTOS/Source/portable/GCC/ARM_CM3/portmacro.h **** 		xReturn = pdFALSE;
 180:Middlewares/Third_Party/FreeRTOS/Source/portable/GCC/ARM_CM3/portmacro.h **** 	}
 181:Middlewares/Third_Party/FreeRTOS/Source/portable/GCC/ARM_CM3/portmacro.h **** 	else
 182:Middlewares/Third_Party/FreeRTOS/Source/portable/GCC/ARM_CM3/portmacro.h **** 	{
 183:Middlewares/Third_Party/FreeRTOS/Source/portable/GCC/ARM_CM3/portmacro.h **** 		xReturn = pdTRUE;
 184:Middlewares/Third_Party/FreeRTOS/Source/portable/GCC/ARM_CM3/portmacro.h **** 	}
 185:Middlewares/Third_Party/FreeRTOS/Source/portable/GCC/ARM_CM3/portmacro.h **** 
 186:Middlewares/Third_Party/FreeRTOS/Source/portable/GCC/ARM_CM3/portmacro.h **** 	return xReturn;
 187:Middlewares/Third_Party/FreeRTOS/Source/portable/GCC/ARM_CM3/portmacro.h **** }
 188:Middlewares/Third_Party/FreeRTOS/Source/portable/GCC/ARM_CM3/portmacro.h **** 
 189:Middlewares/Third_Party/FreeRTOS/Source/portable/GCC/ARM_CM3/portmacro.h **** /*-----------------------------------------------------------*/
 190:Middlewares/Third_Party/FreeRTOS/Source/portable/GCC/ARM_CM3/portmacro.h **** 
 191:Middlewares/Third_Party/FreeRTOS/Source/portable/GCC/ARM_CM3/portmacro.h **** portFORCE_INLINE static void vPortRaiseBASEPRI( void )
 116              		.loc 2 191 30 view .LVU28
 117              	.LBB38:
 192:Middlewares/Third_Party/FreeRTOS/Source/portable/GCC/ARM_CM3/portmacro.h **** {
 193:Middlewares/Third_Party/FreeRTOS/Source/portable/GCC/ARM_CM3/portmacro.h **** uint32_t ulNewBASEPRI;
 118              		.loc 2 193 1 view .LVU29
 194:Middlewares/Third_Party/FreeRTOS/Source/portable/GCC/ARM_CM3/portmacro.h **** 
 195:Middlewares/Third_Party/FreeRTOS/Source/portable/GCC/ARM_CM3/portmacro.h **** 	__asm volatile
 119              		.loc 2 195 2 view .LVU30
 120              		.syntax unified
 121              	@ 195 "Middlewares/Third_Party/FreeRTOS/Source/portable/GCC/ARM_CM3/portmacro.h" 1
 122 0012 4FF05003 			mov r3, #80												
 123 0016 83F31188 		msr basepri, r3											
 124 001a BFF36F8F 		isb														
 125 001e BFF34F8F 		dsb														
 126              	
 127              	@ 0 "" 2
 128              	.LVL10:
 129              		.thumb
 130              		.syntax unified
 131              	.L10:
ARM GAS  C:\Users\Abhinav\AppData\Local\Temp\cc3ESLnv.s 			page 19


 132              		.loc 2 195 2 is_stmt 0 view .LVU31
 133              	.LBE38:
 134              	.LBE37:
 106:Middlewares/Third_Party/FreeRTOS/Source/event_groups.c **** 		}
 135              		.loc 1 106 4 is_stmt 1 discriminator 2 view .LVU32
 106:Middlewares/Third_Party/FreeRTOS/Source/event_groups.c **** 		}
 136              		.loc 1 106 4 discriminator 2 view .LVU33
 137 0022 FEE7     		b	.L10
 138              	.L13:
 139              		.cfi_def_cfa_offset 0
 140              		.cfi_restore 4
 141              		.cfi_restore 14
 106:Middlewares/Third_Party/FreeRTOS/Source/event_groups.c **** 		}
 142              		.loc 1 106 4 is_stmt 0 discriminator 2 view .LVU34
 143              	.LBE36:
  98:Middlewares/Third_Party/FreeRTOS/Source/event_groups.c **** 
 144              		.loc 1 98 3 is_stmt 1 view .LVU35
 145              	.LBB39:
 146              	.LBI39:
 191:Middlewares/Third_Party/FreeRTOS/Source/portable/GCC/ARM_CM3/portmacro.h **** {
 147              		.loc 2 191 30 view .LVU36
 148              	.LBB40:
 193:Middlewares/Third_Party/FreeRTOS/Source/portable/GCC/ARM_CM3/portmacro.h **** 
 149              		.loc 2 193 1 view .LVU37
 150              		.loc 2 195 2 view .LVU38
 151              		.syntax unified
 152              	@ 195 "Middlewares/Third_Party/FreeRTOS/Source/portable/GCC/ARM_CM3/portmacro.h" 1
 153 0024 4FF05003 			mov r3, #80												
 154 0028 83F31188 		msr basepri, r3											
 155 002c BFF36F8F 		isb														
 156 0030 BFF34F8F 		dsb														
 157              	
 158              	@ 0 "" 2
 159              	.LVL11:
 160              		.thumb
 161              		.syntax unified
 162              	.L8:
 163              		.loc 2 195 2 is_stmt 0 view .LVU39
 164              	.LBE40:
 165              	.LBE39:
  98:Middlewares/Third_Party/FreeRTOS/Source/event_groups.c **** 
 166              		.loc 1 98 3 is_stmt 1 discriminator 1 view .LVU40
  98:Middlewares/Third_Party/FreeRTOS/Source/event_groups.c **** 
 167              		.loc 1 98 3 discriminator 1 view .LVU41
 168 0034 FEE7     		b	.L8
 169              	.L9:
 170              		.cfi_def_cfa_offset 16
 171              		.cfi_offset 4, -8
 172              		.cfi_offset 14, -4
 173              	.LBB41:
 106:Middlewares/Third_Party/FreeRTOS/Source/event_groups.c **** 		}
 174              		.loc 1 106 51 view .LVU42
 175              	.LBE41:
 111:Middlewares/Third_Party/FreeRTOS/Source/event_groups.c **** 
 176              		.loc 1 111 3 view .LVU43
 177              	.LVL12:
 113:Middlewares/Third_Party/FreeRTOS/Source/event_groups.c **** 		{
ARM GAS  C:\Users\Abhinav\AppData\Local\Temp\cc3ESLnv.s 			page 20


 178              		.loc 1 113 3 view .LVU44
 115:Middlewares/Third_Party/FreeRTOS/Source/event_groups.c **** 			vListInitialise( &( pxEventBits->xTasksWaitingForBits ) );
 179              		.loc 1 115 4 view .LVU45
 115:Middlewares/Third_Party/FreeRTOS/Source/event_groups.c **** 			vListInitialise( &( pxEventBits->xTasksWaitingForBits ) );
 180              		.loc 1 115 29 is_stmt 0 view .LVU46
 181 0036 0023     		movs	r3, #0
 182 0038 40F8043B 		str	r3, [r0], #4
 183              	.LVL13:
 116:Middlewares/Third_Party/FreeRTOS/Source/event_groups.c **** 
 184              		.loc 1 116 4 is_stmt 1 view .LVU47
 185 003c FFF7FEFF 		bl	vListInitialise
 186              	.LVL14:
 123:Middlewares/Third_Party/FreeRTOS/Source/event_groups.c **** 			}
 187              		.loc 1 123 5 view .LVU48
 123:Middlewares/Third_Party/FreeRTOS/Source/event_groups.c **** 			}
 188              		.loc 1 123 40 is_stmt 0 view .LVU49
 189 0040 0123     		movs	r3, #1
 190 0042 2377     		strb	r3, [r4, #28]
 127:Middlewares/Third_Party/FreeRTOS/Source/event_groups.c **** 		}
 191              		.loc 1 127 42 is_stmt 1 view .LVU50
 131:Middlewares/Third_Party/FreeRTOS/Source/event_groups.c **** 		}
 192              		.loc 1 131 36 view .LVU51
 134:Middlewares/Third_Party/FreeRTOS/Source/event_groups.c **** 	}
 193              		.loc 1 134 3 view .LVU52
 135:Middlewares/Third_Party/FreeRTOS/Source/event_groups.c **** 
 194              		.loc 1 135 2 is_stmt 0 view .LVU53
 195 0044 2046     		mov	r0, r4
 196 0046 02B0     		add	sp, sp, #8
 197              		.cfi_def_cfa_offset 8
 198              		@ sp needed
 199 0048 10BD     		pop	{r4, pc}
 135:Middlewares/Third_Party/FreeRTOS/Source/event_groups.c **** 
 200              		.loc 1 135 2 view .LVU54
 201              		.cfi_endproc
 202              	.LFE4:
 204              		.section	.text.xEventGroupCreate,"ax",%progbits
 205              		.align	1
 206              		.global	xEventGroupCreate
 207              		.syntax unified
 208              		.thumb
 209              		.thumb_func
 211              	xEventGroupCreate:
 212              	.LFB5:
 143:Middlewares/Third_Party/FreeRTOS/Source/event_groups.c **** 	EventGroup_t *pxEventBits;
 213              		.loc 1 143 2 is_stmt 1 view -0
 214              		.cfi_startproc
 215              		@ args = 0, pretend = 0, frame = 0
 216              		@ frame_needed = 0, uses_anonymous_args = 0
 217 0000 38B5     		push	{r3, r4, r5, lr}
 218              		.cfi_def_cfa_offset 16
 219              		.cfi_offset 3, -16
 220              		.cfi_offset 4, -12
 221              		.cfi_offset 5, -8
 222              		.cfi_offset 14, -4
 144:Middlewares/Third_Party/FreeRTOS/Source/event_groups.c **** 
 223              		.loc 1 144 2 view .LVU56
 147:Middlewares/Third_Party/FreeRTOS/Source/event_groups.c **** 
ARM GAS  C:\Users\Abhinav\AppData\Local\Temp\cc3ESLnv.s 			page 21


 224              		.loc 1 147 3 view .LVU57
 147:Middlewares/Third_Party/FreeRTOS/Source/event_groups.c **** 
 225              		.loc 1 147 36 is_stmt 0 view .LVU58
 226 0002 2020     		movs	r0, #32
 227 0004 FFF7FEFF 		bl	pvPortMalloc
 228              	.LVL15:
 149:Middlewares/Third_Party/FreeRTOS/Source/event_groups.c **** 		{
 229              		.loc 1 149 3 is_stmt 1 view .LVU59
 149:Middlewares/Third_Party/FreeRTOS/Source/event_groups.c **** 		{
 230              		.loc 1 149 5 is_stmt 0 view .LVU60
 231 0008 0446     		mov	r4, r0
 232 000a 28B1     		cbz	r0, .L14
 151:Middlewares/Third_Party/FreeRTOS/Source/event_groups.c **** 			vListInitialise( &( pxEventBits->xTasksWaitingForBits ) );
 233              		.loc 1 151 4 is_stmt 1 view .LVU61
 151:Middlewares/Third_Party/FreeRTOS/Source/event_groups.c **** 			vListInitialise( &( pxEventBits->xTasksWaitingForBits ) );
 234              		.loc 1 151 29 is_stmt 0 view .LVU62
 235 000c 0025     		movs	r5, #0
 236 000e 40F8045B 		str	r5, [r0], #4
 237              	.LVL16:
 152:Middlewares/Third_Party/FreeRTOS/Source/event_groups.c **** 
 238              		.loc 1 152 4 is_stmt 1 view .LVU63
 239 0012 FFF7FEFF 		bl	vListInitialise
 240              	.LVL17:
 159:Middlewares/Third_Party/FreeRTOS/Source/event_groups.c **** 			}
 241              		.loc 1 159 5 view .LVU64
 159:Middlewares/Third_Party/FreeRTOS/Source/event_groups.c **** 			}
 242              		.loc 1 159 40 is_stmt 0 view .LVU65
 243 0016 2577     		strb	r5, [r4, #28]
 163:Middlewares/Third_Party/FreeRTOS/Source/event_groups.c **** 		}
 244              		.loc 1 163 42 is_stmt 1 view .LVU66
 167:Middlewares/Third_Party/FreeRTOS/Source/event_groups.c **** 		}
 245              		.loc 1 167 36 view .LVU67
 170:Middlewares/Third_Party/FreeRTOS/Source/event_groups.c **** 	}
 246              		.loc 1 170 3 view .LVU68
 247              	.L14:
 171:Middlewares/Third_Party/FreeRTOS/Source/event_groups.c **** 
 248              		.loc 1 171 2 is_stmt 0 view .LVU69
 249 0018 2046     		mov	r0, r4
 250 001a 38BD     		pop	{r3, r4, r5, pc}
 171:Middlewares/Third_Party/FreeRTOS/Source/event_groups.c **** 
 251              		.loc 1 171 2 view .LVU70
 252              		.cfi_endproc
 253              	.LFE5:
 255              		.section	.text.xEventGroupWaitBits,"ax",%progbits
 256              		.align	1
 257              		.global	xEventGroupWaitBits
 258              		.syntax unified
 259              		.thumb
 260              		.thumb_func
 262              	xEventGroupWaitBits:
 263              	.LVL18:
 264              	.LFB7:
 297:Middlewares/Third_Party/FreeRTOS/Source/event_groups.c **** EventGroup_t *pxEventBits = ( EventGroup_t * ) xEventGroup;
 265              		.loc 1 297 1 is_stmt 1 view -0
 266              		.cfi_startproc
 267              		@ args = 4, pretend = 0, frame = 0
 268              		@ frame_needed = 0, uses_anonymous_args = 0
ARM GAS  C:\Users\Abhinav\AppData\Local\Temp\cc3ESLnv.s 			page 22


 298:Middlewares/Third_Party/FreeRTOS/Source/event_groups.c **** EventBits_t uxReturn, uxControlBits = 0;
 269              		.loc 1 298 1 view .LVU72
 299:Middlewares/Third_Party/FreeRTOS/Source/event_groups.c **** BaseType_t xWaitConditionMet, xAlreadyYielded;
 270              		.loc 1 299 1 view .LVU73
 300:Middlewares/Third_Party/FreeRTOS/Source/event_groups.c **** BaseType_t xTimeoutOccurred = pdFALSE;
 271              		.loc 1 300 1 view .LVU74
 301:Middlewares/Third_Party/FreeRTOS/Source/event_groups.c **** 
 272              		.loc 1 301 1 view .LVU75
 305:Middlewares/Third_Party/FreeRTOS/Source/event_groups.c **** 	configASSERT( ( uxBitsToWaitFor & eventEVENT_BITS_CONTROL_BYTES ) == 0 );
 273              		.loc 1 305 2 view .LVU76
 274 0000 88B1     		cbz	r0, .L38
 297:Middlewares/Third_Party/FreeRTOS/Source/event_groups.c **** EventGroup_t *pxEventBits = ( EventGroup_t * ) xEventGroup;
 275              		.loc 1 297 1 is_stmt 0 discriminator 2 view .LVU77
 276 0002 2DE9F041 		push	{r4, r5, r6, r7, r8, lr}
 277              		.cfi_def_cfa_offset 24
 278              		.cfi_offset 4, -24
 279              		.cfi_offset 5, -20
 280              		.cfi_offset 6, -16
 281              		.cfi_offset 7, -12
 282              		.cfi_offset 8, -8
 283              		.cfi_offset 14, -4
 284 0006 0C46     		mov	r4, r1
 285 0008 1646     		mov	r6, r2
 286 000a 1D46     		mov	r5, r3
 287 000c 0746     		mov	r7, r0
 305:Middlewares/Third_Party/FreeRTOS/Source/event_groups.c **** 	configASSERT( ( uxBitsToWaitFor & eventEVENT_BITS_CONTROL_BYTES ) == 0 );
 288              		.loc 1 305 29 is_stmt 1 discriminator 2 view .LVU78
 306:Middlewares/Third_Party/FreeRTOS/Source/event_groups.c **** 	configASSERT( uxBitsToWaitFor != 0 );
 289              		.loc 1 306 2 discriminator 2 view .LVU79
 290 000e B1F1807F 		cmp	r1, #16777216
 291 0012 11D3     		bcc	.L20
 306:Middlewares/Third_Party/FreeRTOS/Source/event_groups.c **** 	configASSERT( uxBitsToWaitFor != 0 );
 292              		.loc 1 306 2 view .LVU80
 293              	.LBB42:
 294              	.LBI42:
 191:Middlewares/Third_Party/FreeRTOS/Source/portable/GCC/ARM_CM3/portmacro.h **** {
 295              		.loc 2 191 30 view .LVU81
 296              	.LBB43:
 193:Middlewares/Third_Party/FreeRTOS/Source/portable/GCC/ARM_CM3/portmacro.h **** 
 297              		.loc 2 193 1 view .LVU82
 298              		.loc 2 195 2 view .LVU83
 299              		.syntax unified
 300              	@ 195 "Middlewares/Third_Party/FreeRTOS/Source/portable/GCC/ARM_CM3/portmacro.h" 1
 301 0014 4FF05003 			mov r3, #80												
 302 0018 83F31188 		msr basepri, r3											
 303 001c BFF36F8F 		isb														
 304 0020 BFF34F8F 		dsb														
 305              	
 306              	@ 0 "" 2
 307              	.LVL19:
 308              		.thumb
 309              		.syntax unified
 310              	.L21:
 311              		.loc 2 195 2 is_stmt 0 view .LVU84
 312              	.LBE43:
 313              	.LBE42:
 306:Middlewares/Third_Party/FreeRTOS/Source/event_groups.c **** 	configASSERT( uxBitsToWaitFor != 0 );
ARM GAS  C:\Users\Abhinav\AppData\Local\Temp\cc3ESLnv.s 			page 23


 314              		.loc 1 306 2 is_stmt 1 discriminator 2 view .LVU85
 306:Middlewares/Third_Party/FreeRTOS/Source/event_groups.c **** 	configASSERT( uxBitsToWaitFor != 0 );
 315              		.loc 1 306 2 discriminator 2 view .LVU86
 316 0024 FEE7     		b	.L21
 317              	.LVL20:
 318              	.L38:
 319              		.cfi_def_cfa_offset 0
 320              		.cfi_restore 4
 321              		.cfi_restore 5
 322              		.cfi_restore 6
 323              		.cfi_restore 7
 324              		.cfi_restore 8
 325              		.cfi_restore 14
 305:Middlewares/Third_Party/FreeRTOS/Source/event_groups.c **** 	configASSERT( ( uxBitsToWaitFor & eventEVENT_BITS_CONTROL_BYTES ) == 0 );
 326              		.loc 1 305 2 view .LVU87
 327              	.LBB44:
 328              	.LBI44:
 191:Middlewares/Third_Party/FreeRTOS/Source/portable/GCC/ARM_CM3/portmacro.h **** {
 329              		.loc 2 191 30 view .LVU88
 330              	.LBB45:
 193:Middlewares/Third_Party/FreeRTOS/Source/portable/GCC/ARM_CM3/portmacro.h **** 
 331              		.loc 2 193 1 view .LVU89
 332              		.loc 2 195 2 view .LVU90
 333              		.syntax unified
 334              	@ 195 "Middlewares/Third_Party/FreeRTOS/Source/portable/GCC/ARM_CM3/portmacro.h" 1
 335 0026 4FF05003 			mov r3, #80												
 336 002a 83F31188 		msr basepri, r3											
 337 002e BFF36F8F 		isb														
 338 0032 BFF34F8F 		dsb														
 339              	
 340              	@ 0 "" 2
 341              	.LVL21:
 342              		.thumb
 343              		.syntax unified
 344              	.L19:
 345              		.loc 2 195 2 is_stmt 0 view .LVU91
 346              	.LBE45:
 347              	.LBE44:
 305:Middlewares/Third_Party/FreeRTOS/Source/event_groups.c **** 	configASSERT( ( uxBitsToWaitFor & eventEVENT_BITS_CONTROL_BYTES ) == 0 );
 348              		.loc 1 305 2 is_stmt 1 discriminator 1 view .LVU92
 305:Middlewares/Third_Party/FreeRTOS/Source/event_groups.c **** 	configASSERT( ( uxBitsToWaitFor & eventEVENT_BITS_CONTROL_BYTES ) == 0 );
 349              		.loc 1 305 2 discriminator 1 view .LVU93
 350 0036 FEE7     		b	.L19
 351              	.LVL22:
 352              	.L20:
 353              		.cfi_def_cfa_offset 24
 354              		.cfi_offset 4, -24
 355              		.cfi_offset 5, -20
 356              		.cfi_offset 6, -16
 357              		.cfi_offset 7, -12
 358              		.cfi_offset 8, -8
 359              		.cfi_offset 14, -4
 306:Middlewares/Third_Party/FreeRTOS/Source/event_groups.c **** 	configASSERT( uxBitsToWaitFor != 0 );
 360              		.loc 1 306 74 discriminator 2 view .LVU94
 307:Middlewares/Third_Party/FreeRTOS/Source/event_groups.c **** 	#if ( ( INCLUDE_xTaskGetSchedulerState == 1 ) || ( configUSE_TIMERS == 1 ) )
 361              		.loc 1 307 2 discriminator 2 view .LVU95
 362 0038 41B9     		cbnz	r1, .L22
ARM GAS  C:\Users\Abhinav\AppData\Local\Temp\cc3ESLnv.s 			page 24


 307:Middlewares/Third_Party/FreeRTOS/Source/event_groups.c **** 	#if ( ( INCLUDE_xTaskGetSchedulerState == 1 ) || ( configUSE_TIMERS == 1 ) )
 363              		.loc 1 307 2 view .LVU96
 364              	.LBB46:
 365              	.LBI46:
 191:Middlewares/Third_Party/FreeRTOS/Source/portable/GCC/ARM_CM3/portmacro.h **** {
 366              		.loc 2 191 30 view .LVU97
 367              	.LBB47:
 193:Middlewares/Third_Party/FreeRTOS/Source/portable/GCC/ARM_CM3/portmacro.h **** 
 368              		.loc 2 193 1 view .LVU98
 369              		.loc 2 195 2 view .LVU99
 370              		.syntax unified
 371              	@ 195 "Middlewares/Third_Party/FreeRTOS/Source/portable/GCC/ARM_CM3/portmacro.h" 1
 372 003a 4FF05003 			mov r3, #80												
 373 003e 83F31188 		msr basepri, r3											
 374 0042 BFF36F8F 		isb														
 375 0046 BFF34F8F 		dsb														
 376              	
 377              	@ 0 "" 2
 378              	.LVL23:
 379              		.thumb
 380              		.syntax unified
 381              	.L23:
 382              		.loc 2 195 2 is_stmt 0 view .LVU100
 383              	.LBE47:
 384              	.LBE46:
 307:Middlewares/Third_Party/FreeRTOS/Source/event_groups.c **** 	#if ( ( INCLUDE_xTaskGetSchedulerState == 1 ) || ( configUSE_TIMERS == 1 ) )
 385              		.loc 1 307 2 is_stmt 1 discriminator 3 view .LVU101
 307:Middlewares/Third_Party/FreeRTOS/Source/event_groups.c **** 	#if ( ( INCLUDE_xTaskGetSchedulerState == 1 ) || ( configUSE_TIMERS == 1 ) )
 386              		.loc 1 307 2 discriminator 3 view .LVU102
 387 004a FEE7     		b	.L23
 388              	.LVL24:
 389              	.L22:
 307:Middlewares/Third_Party/FreeRTOS/Source/event_groups.c **** 	#if ( ( INCLUDE_xTaskGetSchedulerState == 1 ) || ( configUSE_TIMERS == 1 ) )
 390              		.loc 1 307 38 discriminator 2 view .LVU103
 310:Middlewares/Third_Party/FreeRTOS/Source/event_groups.c **** 	}
 391              		.loc 1 310 3 discriminator 2 view .LVU104
 392 004c FFF7FEFF 		bl	xTaskGetSchedulerState
 393              	.LVL25:
 310:Middlewares/Third_Party/FreeRTOS/Source/event_groups.c **** 	}
 394              		.loc 1 310 3 is_stmt 0 discriminator 2 view .LVU105
 395 0050 50B9     		cbnz	r0, .L24
 396 0052 069B     		ldr	r3, [sp, #24]
 397 0054 43B1     		cbz	r3, .L24
 310:Middlewares/Third_Party/FreeRTOS/Source/event_groups.c **** 	}
 398              		.loc 1 310 3 is_stmt 1 view .LVU106
 399              	.LBB48:
 400              	.LBI48:
 191:Middlewares/Third_Party/FreeRTOS/Source/portable/GCC/ARM_CM3/portmacro.h **** {
 401              		.loc 2 191 30 view .LVU107
 402              	.LBB49:
 193:Middlewares/Third_Party/FreeRTOS/Source/portable/GCC/ARM_CM3/portmacro.h **** 
 403              		.loc 2 193 1 view .LVU108
 404              		.loc 2 195 2 view .LVU109
 405              		.syntax unified
 406              	@ 195 "Middlewares/Third_Party/FreeRTOS/Source/portable/GCC/ARM_CM3/portmacro.h" 1
 407 0056 4FF05003 			mov r3, #80												
 408 005a 83F31188 		msr basepri, r3											
ARM GAS  C:\Users\Abhinav\AppData\Local\Temp\cc3ESLnv.s 			page 25


 409 005e BFF36F8F 		isb														
 410 0062 BFF34F8F 		dsb														
 411              	
 412              	@ 0 "" 2
 413              	.LVL26:
 414              		.thumb
 415              		.syntax unified
 416              	.L25:
 417              		.loc 2 195 2 is_stmt 0 view .LVU110
 418              	.LBE49:
 419              	.LBE48:
 310:Middlewares/Third_Party/FreeRTOS/Source/event_groups.c **** 	}
 420              		.loc 1 310 3 is_stmt 1 discriminator 4 view .LVU111
 310:Middlewares/Third_Party/FreeRTOS/Source/event_groups.c **** 	}
 421              		.loc 1 310 3 discriminator 4 view .LVU112
 422 0066 FEE7     		b	.L25
 423              	.L24:
 310:Middlewares/Third_Party/FreeRTOS/Source/event_groups.c **** 	}
 424              		.loc 1 310 104 discriminator 8 view .LVU113
 314:Middlewares/Third_Party/FreeRTOS/Source/event_groups.c **** 	{
 425              		.loc 1 314 2 discriminator 8 view .LVU114
 426 0068 FFF7FEFF 		bl	vTaskSuspendAll
 427              	.LVL27:
 428              	.LBB50:
 316:Middlewares/Third_Party/FreeRTOS/Source/event_groups.c **** 
 429              		.loc 1 316 3 discriminator 8 view .LVU115
 316:Middlewares/Third_Party/FreeRTOS/Source/event_groups.c **** 
 430              		.loc 1 316 21 is_stmt 0 discriminator 8 view .LVU116
 431 006c D7F80080 		ldr	r8, [r7]
 432              	.LVL28:
 319:Middlewares/Third_Party/FreeRTOS/Source/event_groups.c **** 
 433              		.loc 1 319 3 is_stmt 1 discriminator 8 view .LVU117
 319:Middlewares/Third_Party/FreeRTOS/Source/event_groups.c **** 
 434              		.loc 1 319 23 is_stmt 0 discriminator 8 view .LVU118
 435 0070 2A46     		mov	r2, r5
 436 0072 2146     		mov	r1, r4
 437 0074 4046     		mov	r0, r8
 438 0076 FFF7FEFF 		bl	prvTestWaitCondition
 439              	.LVL29:
 321:Middlewares/Third_Party/FreeRTOS/Source/event_groups.c **** 		{
 440              		.loc 1 321 3 is_stmt 1 discriminator 8 view .LVU119
 321:Middlewares/Third_Party/FreeRTOS/Source/event_groups.c **** 		{
 441              		.loc 1 321 5 is_stmt 0 discriminator 8 view .LVU120
 442 007a F8B1     		cbz	r0, .L26
 325:Middlewares/Third_Party/FreeRTOS/Source/event_groups.c **** 			xTicksToWait = ( TickType_t ) 0;
 443              		.loc 1 325 4 is_stmt 1 view .LVU121
 444              	.LVL30:
 326:Middlewares/Third_Party/FreeRTOS/Source/event_groups.c **** 
 445              		.loc 1 326 4 view .LVU122
 329:Middlewares/Third_Party/FreeRTOS/Source/event_groups.c **** 			{
 446              		.loc 1 329 4 view .LVU123
 329:Middlewares/Third_Party/FreeRTOS/Source/event_groups.c **** 			{
 447              		.loc 1 329 6 is_stmt 0 view .LVU124
 448 007c 8EB3     		cbz	r6, .L34
 331:Middlewares/Third_Party/FreeRTOS/Source/event_groups.c **** 			}
 449              		.loc 1 331 5 is_stmt 1 view .LVU125
 331:Middlewares/Third_Party/FreeRTOS/Source/event_groups.c **** 			}
ARM GAS  C:\Users\Abhinav\AppData\Local\Temp\cc3ESLnv.s 			page 26


 450              		.loc 1 331 30 is_stmt 0 view .LVU126
 451 007e 28EA0403 		bic	r3, r8, r4
 452 0082 3B60     		str	r3, [r7]
 326:Middlewares/Third_Party/FreeRTOS/Source/event_groups.c **** 
 453              		.loc 1 326 17 view .LVU127
 454 0084 0023     		movs	r3, #0
 455 0086 0693     		str	r3, [sp, #24]
 456              	.LVL31:
 457              	.L27:
 379:Middlewares/Third_Party/FreeRTOS/Source/event_groups.c **** 		}
 458              		.loc 1 379 68 is_stmt 1 view .LVU128
 459              	.LBE50:
 382:Middlewares/Third_Party/FreeRTOS/Source/event_groups.c **** 
 460              		.loc 1 382 2 view .LVU129
 382:Middlewares/Third_Party/FreeRTOS/Source/event_groups.c **** 
 461              		.loc 1 382 20 is_stmt 0 view .LVU130
 462 0088 FFF7FEFF 		bl	xTaskResumeAll
 463              	.LVL32:
 384:Middlewares/Third_Party/FreeRTOS/Source/event_groups.c **** 	{
 464              		.loc 1 384 2 is_stmt 1 view .LVU131
 384:Middlewares/Third_Party/FreeRTOS/Source/event_groups.c **** 	{
 465              		.loc 1 384 4 is_stmt 0 view .LVU132
 466 008c 069B     		ldr	r3, [sp, #24]
 467 008e 93B1     		cbz	r3, .L17
 386:Middlewares/Third_Party/FreeRTOS/Source/event_groups.c **** 		{
 468              		.loc 1 386 3 is_stmt 1 view .LVU133
 386:Middlewares/Third_Party/FreeRTOS/Source/event_groups.c **** 		{
 469              		.loc 1 386 5 is_stmt 0 view .LVU134
 470 0090 48B9     		cbnz	r0, .L31
 388:Middlewares/Third_Party/FreeRTOS/Source/event_groups.c **** 		}
 471              		.loc 1 388 4 is_stmt 1 view .LVU135
 472 0092 4FF0E023 		mov	r3, #-536813568
 473 0096 4FF08052 		mov	r2, #268435456
 474 009a C3F8042D 		str	r2, [r3, #3332]
 475              	.LVL33:
 388:Middlewares/Third_Party/FreeRTOS/Source/event_groups.c **** 		}
 476              		.loc 1 388 4 view .LVU136
 477              		.syntax unified
 478              	@ 388 "Middlewares/Third_Party/FreeRTOS/Source/event_groups.c" 1
 479 009e BFF34F8F 		dsb
 480              	@ 0 "" 2
 388:Middlewares/Third_Party/FreeRTOS/Source/event_groups.c **** 		}
 481              		.loc 1 388 4 view .LVU137
 482              	@ 388 "Middlewares/Third_Party/FreeRTOS/Source/event_groups.c" 1
 483 00a2 BFF36F8F 		isb
 484              	@ 0 "" 2
 388:Middlewares/Third_Party/FreeRTOS/Source/event_groups.c **** 		}
 485              		.loc 1 388 26 view .LVU138
 486              		.thumb
 487              		.syntax unified
 488              	.L31:
 392:Middlewares/Third_Party/FreeRTOS/Source/event_groups.c **** 		}
 489              		.loc 1 392 28 view .LVU139
 399:Middlewares/Third_Party/FreeRTOS/Source/event_groups.c **** 
 490              		.loc 1 399 3 view .LVU140
 399:Middlewares/Third_Party/FreeRTOS/Source/event_groups.c **** 
 491              		.loc 1 399 14 is_stmt 0 view .LVU141
ARM GAS  C:\Users\Abhinav\AppData\Local\Temp\cc3ESLnv.s 			page 27


 492 00a6 FFF7FEFF 		bl	uxTaskResetEventItemValue
 493              	.LVL34:
 399:Middlewares/Third_Party/FreeRTOS/Source/event_groups.c **** 
 494              		.loc 1 399 14 view .LVU142
 495 00aa 8046     		mov	r8, r0
 496              	.LVL35:
 401:Middlewares/Third_Party/FreeRTOS/Source/event_groups.c **** 		{
 497              		.loc 1 401 3 is_stmt 1 view .LVU143
 401:Middlewares/Third_Party/FreeRTOS/Source/event_groups.c **** 		{
 498              		.loc 1 401 5 is_stmt 0 view .LVU144
 499 00ac 10F0007F 		tst	r0, #33554432
 500 00b0 1AD0     		beq	.L39
 501              	.LVL36:
 502              	.L32:
 432:Middlewares/Third_Party/FreeRTOS/Source/event_groups.c **** 
 503              		.loc 1 432 3 is_stmt 1 view .LVU145
 435:Middlewares/Third_Party/FreeRTOS/Source/event_groups.c **** 	}
 504              		.loc 1 435 3 view .LVU146
 435:Middlewares/Third_Party/FreeRTOS/Source/event_groups.c **** 	}
 505              		.loc 1 435 12 is_stmt 0 view .LVU147
 506 00b2 28F07F48 		bic	r8, r8, #-16777216
 507              	.LVL37:
 437:Middlewares/Third_Party/FreeRTOS/Source/event_groups.c **** 
 508              		.loc 1 437 2 is_stmt 1 view .LVU148
 440:Middlewares/Third_Party/FreeRTOS/Source/event_groups.c **** 
 509              		.loc 1 440 2 view .LVU149
 442:Middlewares/Third_Party/FreeRTOS/Source/event_groups.c **** }
 510              		.loc 1 442 2 view .LVU150
 511              	.L17:
 443:Middlewares/Third_Party/FreeRTOS/Source/event_groups.c **** /*-----------------------------------------------------------*/
 512              		.loc 1 443 1 is_stmt 0 view .LVU151
 513 00b6 4046     		mov	r0, r8
 514 00b8 BDE8F081 		pop	{r4, r5, r6, r7, r8, pc}
 515              	.LVL38:
 516              	.L26:
 517              	.LBB51:
 338:Middlewares/Third_Party/FreeRTOS/Source/event_groups.c **** 		{
 518              		.loc 1 338 8 is_stmt 1 view .LVU152
 338:Middlewares/Third_Party/FreeRTOS/Source/event_groups.c **** 		{
 519              		.loc 1 338 10 is_stmt 0 view .LVU153
 520 00bc 069B     		ldr	r3, [sp, #24]
 521 00be 002B     		cmp	r3, #0
 522 00c0 E2D0     		beq	.L27
 351:Middlewares/Third_Party/FreeRTOS/Source/event_groups.c **** 			{
 523              		.loc 1 351 4 is_stmt 1 view .LVU154
 351:Middlewares/Third_Party/FreeRTOS/Source/event_groups.c **** 			{
 524              		.loc 1 351 6 is_stmt 0 view .LVU155
 525 00c2 5EB9     		cbnz	r6, .L35
 526              	.LBE51:
 299:Middlewares/Third_Party/FreeRTOS/Source/event_groups.c **** BaseType_t xWaitConditionMet, xAlreadyYielded;
 527              		.loc 1 299 23 view .LVU156
 528 00c4 0021     		movs	r1, #0
 529              	.L28:
 530              	.LVL39:
 531              	.LBB52:
 357:Middlewares/Third_Party/FreeRTOS/Source/event_groups.c **** 			}
 532              		.loc 1 357 29 is_stmt 1 view .LVU157
ARM GAS  C:\Users\Abhinav\AppData\Local\Temp\cc3ESLnv.s 			page 28


 360:Middlewares/Third_Party/FreeRTOS/Source/event_groups.c **** 			{
 533              		.loc 1 360 4 view .LVU158
 360:Middlewares/Third_Party/FreeRTOS/Source/event_groups.c **** 			{
 534              		.loc 1 360 6 is_stmt 0 view .LVU159
 535 00c6 0DB1     		cbz	r5, .L29
 362:Middlewares/Third_Party/FreeRTOS/Source/event_groups.c **** 			}
 536              		.loc 1 362 5 is_stmt 1 view .LVU160
 362:Middlewares/Third_Party/FreeRTOS/Source/event_groups.c **** 			}
 537              		.loc 1 362 19 is_stmt 0 view .LVU161
 538 00c8 41F08061 		orr	r1, r1, #67108864
 539              	.LVL40:
 540              	.L29:
 366:Middlewares/Third_Party/FreeRTOS/Source/event_groups.c **** 			}
 541              		.loc 1 366 29 is_stmt 1 view .LVU162
 372:Middlewares/Third_Party/FreeRTOS/Source/event_groups.c **** 
 542              		.loc 1 372 4 view .LVU163
 543 00cc 069A     		ldr	r2, [sp, #24]
 544 00ce 2143     		orrs	r1, r1, r4
 545              	.LVL41:
 372:Middlewares/Third_Party/FreeRTOS/Source/event_groups.c **** 
 546              		.loc 1 372 4 is_stmt 0 view .LVU164
 547 00d0 381D     		adds	r0, r7, #4
 548              	.LVL42:
 372:Middlewares/Third_Party/FreeRTOS/Source/event_groups.c **** 
 549              		.loc 1 372 4 view .LVU165
 550 00d2 FFF7FEFF 		bl	vTaskPlaceOnUnorderedEventList
 551              	.LVL43:
 377:Middlewares/Third_Party/FreeRTOS/Source/event_groups.c **** 
 552              		.loc 1 377 4 is_stmt 1 view .LVU166
 377:Middlewares/Third_Party/FreeRTOS/Source/event_groups.c **** 
 553              		.loc 1 377 13 is_stmt 0 view .LVU167
 554 00d6 4FF00008 		mov	r8, #0
 555              	.LVL44:
 377:Middlewares/Third_Party/FreeRTOS/Source/event_groups.c **** 
 556              		.loc 1 377 13 view .LVU168
 557 00da D5E7     		b	.L27
 558              	.LVL45:
 559              	.L35:
 353:Middlewares/Third_Party/FreeRTOS/Source/event_groups.c **** 			}
 560              		.loc 1 353 19 view .LVU169
 561 00dc 4FF08071 		mov	r1, #16777216
 562 00e0 F1E7     		b	.L28
 563              	.LVL46:
 564              	.L34:
 326:Middlewares/Third_Party/FreeRTOS/Source/event_groups.c **** 
 565              		.loc 1 326 17 view .LVU170
 566 00e2 0023     		movs	r3, #0
 567 00e4 0693     		str	r3, [sp, #24]
 568 00e6 CFE7     		b	.L27
 569              	.LVL47:
 570              	.L39:
 326:Middlewares/Third_Party/FreeRTOS/Source/event_groups.c **** 
 571              		.loc 1 326 17 view .LVU171
 572              	.LBE52:
 403:Middlewares/Third_Party/FreeRTOS/Source/event_groups.c **** 			{
 573              		.loc 1 403 4 is_stmt 1 view .LVU172
 574 00e8 FFF7FEFF 		bl	vPortEnterCritical
ARM GAS  C:\Users\Abhinav\AppData\Local\Temp\cc3ESLnv.s 			page 29


 575              	.LVL48:
 406:Middlewares/Third_Party/FreeRTOS/Source/event_groups.c **** 
 576              		.loc 1 406 5 view .LVU173
 406:Middlewares/Third_Party/FreeRTOS/Source/event_groups.c **** 
 577              		.loc 1 406 14 is_stmt 0 view .LVU174
 578 00ec D7F80080 		ldr	r8, [r7]
 579              	.LVL49:
 410:Middlewares/Third_Party/FreeRTOS/Source/event_groups.c **** 				{
 580              		.loc 1 410 5 is_stmt 1 view .LVU175
 410:Middlewares/Third_Party/FreeRTOS/Source/event_groups.c **** 				{
 581              		.loc 1 410 9 is_stmt 0 view .LVU176
 582 00f0 2A46     		mov	r2, r5
 583 00f2 2146     		mov	r1, r4
 584 00f4 4046     		mov	r0, r8
 585 00f6 FFF7FEFF 		bl	prvTestWaitCondition
 586              	.LVL50:
 410:Middlewares/Third_Party/FreeRTOS/Source/event_groups.c **** 				{
 587              		.loc 1 410 7 view .LVU177
 588 00fa 18B1     		cbz	r0, .L33
 412:Middlewares/Third_Party/FreeRTOS/Source/event_groups.c **** 					{
 589              		.loc 1 412 6 is_stmt 1 view .LVU178
 412:Middlewares/Third_Party/FreeRTOS/Source/event_groups.c **** 					{
 590              		.loc 1 412 8 is_stmt 0 view .LVU179
 591 00fc 16B1     		cbz	r6, .L33
 414:Middlewares/Third_Party/FreeRTOS/Source/event_groups.c **** 					}
 592              		.loc 1 414 7 is_stmt 1 view .LVU180
 414:Middlewares/Third_Party/FreeRTOS/Source/event_groups.c **** 					}
 593              		.loc 1 414 32 is_stmt 0 view .LVU181
 594 00fe 28EA0404 		bic	r4, r8, r4
 595              	.LVL51:
 414:Middlewares/Third_Party/FreeRTOS/Source/event_groups.c **** 					}
 596              		.loc 1 414 32 view .LVU182
 597 0102 3C60     		str	r4, [r7]
 598              	.L33:
 423:Middlewares/Third_Party/FreeRTOS/Source/event_groups.c **** 				}
 599              		.loc 1 423 30 is_stmt 1 view .LVU183
 425:Middlewares/Third_Party/FreeRTOS/Source/event_groups.c **** 			}
 600              		.loc 1 425 5 view .LVU184
 601              	.LVL52:
 427:Middlewares/Third_Party/FreeRTOS/Source/event_groups.c **** 		}
 602              		.loc 1 427 4 view .LVU185
 603 0104 FFF7FEFF 		bl	vPortExitCritical
 604              	.LVL53:
 605 0108 D3E7     		b	.L32
 606              		.cfi_endproc
 607              	.LFE7:
 609              		.section	.text.xEventGroupClearBits,"ax",%progbits
 610              		.align	1
 611              		.global	xEventGroupClearBits
 612              		.syntax unified
 613              		.thumb
 614              		.thumb_func
 616              	xEventGroupClearBits:
 617              	.LVL54:
 618              	.LFB8:
 447:Middlewares/Third_Party/FreeRTOS/Source/event_groups.c **** EventGroup_t *pxEventBits = ( EventGroup_t * ) xEventGroup;
 619              		.loc 1 447 1 view -0
ARM GAS  C:\Users\Abhinav\AppData\Local\Temp\cc3ESLnv.s 			page 30


 620              		.cfi_startproc
 621              		@ args = 0, pretend = 0, frame = 0
 622              		@ frame_needed = 0, uses_anonymous_args = 0
 448:Middlewares/Third_Party/FreeRTOS/Source/event_groups.c **** EventBits_t uxReturn;
 623              		.loc 1 448 1 view .LVU187
 449:Middlewares/Third_Party/FreeRTOS/Source/event_groups.c **** 
 624              		.loc 1 449 1 view .LVU188
 453:Middlewares/Third_Party/FreeRTOS/Source/event_groups.c **** 	configASSERT( ( uxBitsToClear & eventEVENT_BITS_CONTROL_BYTES ) == 0 );
 625              		.loc 1 453 2 view .LVU189
 626 0000 70B1     		cbz	r0, .L47
 447:Middlewares/Third_Party/FreeRTOS/Source/event_groups.c **** EventGroup_t *pxEventBits = ( EventGroup_t * ) xEventGroup;
 627              		.loc 1 447 1 is_stmt 0 discriminator 2 view .LVU190
 628 0002 70B5     		push	{r4, r5, r6, lr}
 629              		.cfi_def_cfa_offset 16
 630              		.cfi_offset 4, -16
 631              		.cfi_offset 5, -12
 632              		.cfi_offset 6, -8
 633              		.cfi_offset 14, -4
 634 0004 0C46     		mov	r4, r1
 635 0006 0546     		mov	r5, r0
 453:Middlewares/Third_Party/FreeRTOS/Source/event_groups.c **** 	configASSERT( ( uxBitsToClear & eventEVENT_BITS_CONTROL_BYTES ) == 0 );
 636              		.loc 1 453 29 is_stmt 1 discriminator 2 view .LVU191
 454:Middlewares/Third_Party/FreeRTOS/Source/event_groups.c **** 
 637              		.loc 1 454 2 discriminator 2 view .LVU192
 638 0008 B1F1807F 		cmp	r1, #16777216
 639 000c 11D3     		bcc	.L43
 454:Middlewares/Third_Party/FreeRTOS/Source/event_groups.c **** 
 640              		.loc 1 454 2 view .LVU193
 641              	.LBB53:
 642              	.LBI53:
 191:Middlewares/Third_Party/FreeRTOS/Source/portable/GCC/ARM_CM3/portmacro.h **** {
 643              		.loc 2 191 30 view .LVU194
 644              	.LBB54:
 193:Middlewares/Third_Party/FreeRTOS/Source/portable/GCC/ARM_CM3/portmacro.h **** 
 645              		.loc 2 193 1 view .LVU195
 646              		.loc 2 195 2 view .LVU196
 647              		.syntax unified
 648              	@ 195 "Middlewares/Third_Party/FreeRTOS/Source/portable/GCC/ARM_CM3/portmacro.h" 1
 649 000e 4FF05003 			mov r3, #80												
 650 0012 83F31188 		msr basepri, r3											
 651 0016 BFF36F8F 		isb														
 652 001a BFF34F8F 		dsb														
 653              	
 654              	@ 0 "" 2
 655              	.LVL55:
 656              		.thumb
 657              		.syntax unified
 658              	.L44:
 659              		.loc 2 195 2 is_stmt 0 view .LVU197
 660              	.LBE54:
 661              	.LBE53:
 454:Middlewares/Third_Party/FreeRTOS/Source/event_groups.c **** 
 662              		.loc 1 454 2 is_stmt 1 discriminator 2 view .LVU198
 454:Middlewares/Third_Party/FreeRTOS/Source/event_groups.c **** 
 663              		.loc 1 454 2 discriminator 2 view .LVU199
 664 001e FEE7     		b	.L44
 665              	.L47:
ARM GAS  C:\Users\Abhinav\AppData\Local\Temp\cc3ESLnv.s 			page 31


 666              		.cfi_def_cfa_offset 0
 667              		.cfi_restore 4
 668              		.cfi_restore 5
 669              		.cfi_restore 6
 670              		.cfi_restore 14
 453:Middlewares/Third_Party/FreeRTOS/Source/event_groups.c **** 	configASSERT( ( uxBitsToClear & eventEVENT_BITS_CONTROL_BYTES ) == 0 );
 671              		.loc 1 453 2 view .LVU200
 672              	.LBB55:
 673              	.LBI55:
 191:Middlewares/Third_Party/FreeRTOS/Source/portable/GCC/ARM_CM3/portmacro.h **** {
 674              		.loc 2 191 30 view .LVU201
 675              	.LBB56:
 193:Middlewares/Third_Party/FreeRTOS/Source/portable/GCC/ARM_CM3/portmacro.h **** 
 676              		.loc 2 193 1 view .LVU202
 677              		.loc 2 195 2 view .LVU203
 678              		.syntax unified
 679              	@ 195 "Middlewares/Third_Party/FreeRTOS/Source/portable/GCC/ARM_CM3/portmacro.h" 1
 680 0020 4FF05003 			mov r3, #80												
 681 0024 83F31188 		msr basepri, r3											
 682 0028 BFF36F8F 		isb														
 683 002c BFF34F8F 		dsb														
 684              	
 685              	@ 0 "" 2
 686              	.LVL56:
 687              		.thumb
 688              		.syntax unified
 689              	.L42:
 690              		.loc 2 195 2 is_stmt 0 view .LVU204
 691              	.LBE56:
 692              	.LBE55:
 453:Middlewares/Third_Party/FreeRTOS/Source/event_groups.c **** 	configASSERT( ( uxBitsToClear & eventEVENT_BITS_CONTROL_BYTES ) == 0 );
 693              		.loc 1 453 2 is_stmt 1 discriminator 1 view .LVU205
 453:Middlewares/Third_Party/FreeRTOS/Source/event_groups.c **** 	configASSERT( ( uxBitsToClear & eventEVENT_BITS_CONTROL_BYTES ) == 0 );
 694              		.loc 1 453 2 discriminator 1 view .LVU206
 695 0030 FEE7     		b	.L42
 696              	.L43:
 697              		.cfi_def_cfa_offset 16
 698              		.cfi_offset 4, -16
 699              		.cfi_offset 5, -12
 700              		.cfi_offset 6, -8
 701              		.cfi_offset 14, -4
 454:Middlewares/Third_Party/FreeRTOS/Source/event_groups.c **** 
 702              		.loc 1 454 72 discriminator 2 view .LVU207
 456:Middlewares/Third_Party/FreeRTOS/Source/event_groups.c **** 	{
 703              		.loc 1 456 2 discriminator 2 view .LVU208
 704 0032 FFF7FEFF 		bl	vPortEnterCritical
 705              	.LVL57:
 458:Middlewares/Third_Party/FreeRTOS/Source/event_groups.c **** 
 706              		.loc 1 458 60 discriminator 2 view .LVU209
 462:Middlewares/Third_Party/FreeRTOS/Source/event_groups.c **** 
 707              		.loc 1 462 3 discriminator 2 view .LVU210
 462:Middlewares/Third_Party/FreeRTOS/Source/event_groups.c **** 
 708              		.loc 1 462 12 is_stmt 0 discriminator 2 view .LVU211
 709 0036 2E68     		ldr	r6, [r5]
 710              	.LVL58:
 465:Middlewares/Third_Party/FreeRTOS/Source/event_groups.c **** 	}
 711              		.loc 1 465 3 is_stmt 1 discriminator 2 view .LVU212
ARM GAS  C:\Users\Abhinav\AppData\Local\Temp\cc3ESLnv.s 			page 32


 465:Middlewares/Third_Party/FreeRTOS/Source/event_groups.c **** 	}
 712              		.loc 1 465 28 is_stmt 0 discriminator 2 view .LVU213
 713 0038 26EA0404 		bic	r4, r6, r4
 714              	.LVL59:
 465:Middlewares/Third_Party/FreeRTOS/Source/event_groups.c **** 	}
 715              		.loc 1 465 28 discriminator 2 view .LVU214
 716 003c 2C60     		str	r4, [r5]
 467:Middlewares/Third_Party/FreeRTOS/Source/event_groups.c **** 
 717              		.loc 1 467 2 is_stmt 1 discriminator 2 view .LVU215
 718 003e FFF7FEFF 		bl	vPortExitCritical
 719              	.LVL60:
 469:Middlewares/Third_Party/FreeRTOS/Source/event_groups.c **** }
 720              		.loc 1 469 2 discriminator 2 view .LVU216
 470:Middlewares/Third_Party/FreeRTOS/Source/event_groups.c **** /*-----------------------------------------------------------*/
 721              		.loc 1 470 1 is_stmt 0 discriminator 2 view .LVU217
 722 0042 3046     		mov	r0, r6
 723 0044 70BD     		pop	{r4, r5, r6, pc}
 470:Middlewares/Third_Party/FreeRTOS/Source/event_groups.c **** /*-----------------------------------------------------------*/
 724              		.loc 1 470 1 discriminator 2 view .LVU218
 725              		.cfi_endproc
 726              	.LFE8:
 728              		.section	.text.vEventGroupClearBitsCallback,"ax",%progbits
 729              		.align	1
 730              		.global	vEventGroupClearBitsCallback
 731              		.syntax unified
 732              		.thumb
 733              		.thumb_func
 735              	vEventGroupClearBitsCallback:
 736              	.LVL61:
 737              	.LFB14:
 651:Middlewares/Third_Party/FreeRTOS/Source/event_groups.c **** 	( void ) xEventGroupClearBits( pvEventGroup, ( EventBits_t ) ulBitsToClear );
 738              		.loc 1 651 1 is_stmt 1 view -0
 739              		.cfi_startproc
 740              		@ args = 0, pretend = 0, frame = 0
 741              		@ frame_needed = 0, uses_anonymous_args = 0
 651:Middlewares/Third_Party/FreeRTOS/Source/event_groups.c **** 	( void ) xEventGroupClearBits( pvEventGroup, ( EventBits_t ) ulBitsToClear );
 742              		.loc 1 651 1 is_stmt 0 view .LVU220
 743 0000 08B5     		push	{r3, lr}
 744              		.cfi_def_cfa_offset 8
 745              		.cfi_offset 3, -8
 746              		.cfi_offset 14, -4
 652:Middlewares/Third_Party/FreeRTOS/Source/event_groups.c **** }
 747              		.loc 1 652 2 is_stmt 1 view .LVU221
 652:Middlewares/Third_Party/FreeRTOS/Source/event_groups.c **** }
 748              		.loc 1 652 11 is_stmt 0 view .LVU222
 749 0002 FFF7FEFF 		bl	xEventGroupClearBits
 750              	.LVL62:
 653:Middlewares/Third_Party/FreeRTOS/Source/event_groups.c **** /*-----------------------------------------------------------*/
 751              		.loc 1 653 1 view .LVU223
 752 0006 08BD     		pop	{r3, pc}
 753              		.cfi_endproc
 754              	.LFE14:
 756              		.section	.text.xEventGroupClearBitsFromISR,"ax",%progbits
 757              		.align	1
 758              		.global	xEventGroupClearBitsFromISR
 759              		.syntax unified
 760              		.thumb
ARM GAS  C:\Users\Abhinav\AppData\Local\Temp\cc3ESLnv.s 			page 33


 761              		.thumb_func
 763              	xEventGroupClearBitsFromISR:
 764              	.LVL63:
 765              	.LFB9:
 476:Middlewares/Third_Party/FreeRTOS/Source/event_groups.c **** 		BaseType_t xReturn;
 766              		.loc 1 476 2 is_stmt 1 view -0
 767              		.cfi_startproc
 768              		@ args = 0, pretend = 0, frame = 0
 769              		@ frame_needed = 0, uses_anonymous_args = 0
 476:Middlewares/Third_Party/FreeRTOS/Source/event_groups.c **** 		BaseType_t xReturn;
 770              		.loc 1 476 2 is_stmt 0 view .LVU225
 771 0000 08B5     		push	{r3, lr}
 772              		.cfi_def_cfa_offset 8
 773              		.cfi_offset 3, -8
 774              		.cfi_offset 14, -4
 775 0002 0A46     		mov	r2, r1
 477:Middlewares/Third_Party/FreeRTOS/Source/event_groups.c **** 
 776              		.loc 1 477 3 is_stmt 1 view .LVU226
 479:Middlewares/Third_Party/FreeRTOS/Source/event_groups.c **** 		xReturn = xTimerPendFunctionCallFromISR( vEventGroupClearBitsCallback, ( void * ) xEventGroup, ( 
 777              		.loc 1 479 69 view .LVU227
 480:Middlewares/Third_Party/FreeRTOS/Source/event_groups.c **** 
 778              		.loc 1 480 3 view .LVU228
 480:Middlewares/Third_Party/FreeRTOS/Source/event_groups.c **** 
 779              		.loc 1 480 13 is_stmt 0 view .LVU229
 780 0004 0023     		movs	r3, #0
 781 0006 0146     		mov	r1, r0
 782              	.LVL64:
 480:Middlewares/Third_Party/FreeRTOS/Source/event_groups.c **** 
 783              		.loc 1 480 13 view .LVU230
 784 0008 0148     		ldr	r0, .L52
 785              	.LVL65:
 480:Middlewares/Third_Party/FreeRTOS/Source/event_groups.c **** 
 786              		.loc 1 480 13 view .LVU231
 787 000a FFF7FEFF 		bl	xTimerPendFunctionCallFromISR
 788              	.LVL66:
 482:Middlewares/Third_Party/FreeRTOS/Source/event_groups.c **** 	}
 789              		.loc 1 482 3 is_stmt 1 view .LVU232
 483:Middlewares/Third_Party/FreeRTOS/Source/event_groups.c **** 
 790              		.loc 1 483 2 is_stmt 0 view .LVU233
 791 000e 08BD     		pop	{r3, pc}
 792              	.L53:
 793              		.align	2
 794              	.L52:
 795 0010 00000000 		.word	vEventGroupClearBitsCallback
 796              		.cfi_endproc
 797              	.LFE9:
 799              		.section	.text.xEventGroupGetBitsFromISR,"ax",%progbits
 800              		.align	1
 801              		.global	xEventGroupGetBitsFromISR
 802              		.syntax unified
 803              		.thumb
 804              		.thumb_func
 806              	xEventGroupGetBitsFromISR:
 807              	.LVL67:
 808              	.LFB10:
 489:Middlewares/Third_Party/FreeRTOS/Source/event_groups.c **** UBaseType_t uxSavedInterruptStatus;
 809              		.loc 1 489 1 is_stmt 1 view -0
ARM GAS  C:\Users\Abhinav\AppData\Local\Temp\cc3ESLnv.s 			page 34


 810              		.cfi_startproc
 811              		@ args = 0, pretend = 0, frame = 0
 812              		@ frame_needed = 0, uses_anonymous_args = 0
 813              		@ link register save eliminated.
 490:Middlewares/Third_Party/FreeRTOS/Source/event_groups.c **** EventGroup_t *pxEventBits = ( EventGroup_t * ) xEventGroup;
 814              		.loc 1 490 1 view .LVU235
 491:Middlewares/Third_Party/FreeRTOS/Source/event_groups.c **** EventBits_t uxReturn;
 815              		.loc 1 491 1 view .LVU236
 492:Middlewares/Third_Party/FreeRTOS/Source/event_groups.c **** 
 816              		.loc 1 492 1 view .LVU237
 494:Middlewares/Third_Party/FreeRTOS/Source/event_groups.c **** 	{
 817              		.loc 1 494 2 view .LVU238
 818              	.LBB57:
 819              	.LBI57:
 196:Middlewares/Third_Party/FreeRTOS/Source/portable/GCC/ARM_CM3/portmacro.h **** 	(
 197:Middlewares/Third_Party/FreeRTOS/Source/portable/GCC/ARM_CM3/portmacro.h **** 		"	mov %0, %1												\n" \
 198:Middlewares/Third_Party/FreeRTOS/Source/portable/GCC/ARM_CM3/portmacro.h **** 		"	msr basepri, %0											\n" \
 199:Middlewares/Third_Party/FreeRTOS/Source/portable/GCC/ARM_CM3/portmacro.h **** 		"	isb														\n" \
 200:Middlewares/Third_Party/FreeRTOS/Source/portable/GCC/ARM_CM3/portmacro.h **** 		"	dsb														\n" \
 201:Middlewares/Third_Party/FreeRTOS/Source/portable/GCC/ARM_CM3/portmacro.h **** 		:"=r" (ulNewBASEPRI) : "i" ( configMAX_SYSCALL_INTERRUPT_PRIORITY ) : "memory"
 202:Middlewares/Third_Party/FreeRTOS/Source/portable/GCC/ARM_CM3/portmacro.h **** 	);
 203:Middlewares/Third_Party/FreeRTOS/Source/portable/GCC/ARM_CM3/portmacro.h **** }
 204:Middlewares/Third_Party/FreeRTOS/Source/portable/GCC/ARM_CM3/portmacro.h **** 
 205:Middlewares/Third_Party/FreeRTOS/Source/portable/GCC/ARM_CM3/portmacro.h **** /*-----------------------------------------------------------*/
 206:Middlewares/Third_Party/FreeRTOS/Source/portable/GCC/ARM_CM3/portmacro.h **** 
 207:Middlewares/Third_Party/FreeRTOS/Source/portable/GCC/ARM_CM3/portmacro.h **** portFORCE_INLINE static uint32_t ulPortRaiseBASEPRI( void )
 820              		.loc 2 207 34 view .LVU239
 821              	.LBB58:
 208:Middlewares/Third_Party/FreeRTOS/Source/portable/GCC/ARM_CM3/portmacro.h **** {
 209:Middlewares/Third_Party/FreeRTOS/Source/portable/GCC/ARM_CM3/portmacro.h **** uint32_t ulOriginalBASEPRI, ulNewBASEPRI;
 822              		.loc 2 209 1 view .LVU240
 210:Middlewares/Third_Party/FreeRTOS/Source/portable/GCC/ARM_CM3/portmacro.h **** 
 211:Middlewares/Third_Party/FreeRTOS/Source/portable/GCC/ARM_CM3/portmacro.h **** 	__asm volatile
 823              		.loc 2 211 2 view .LVU241
 824              		.syntax unified
 825              	@ 211 "Middlewares/Third_Party/FreeRTOS/Source/portable/GCC/ARM_CM3/portmacro.h" 1
 826 0000 EFF31183 			mrs r3, basepri											
 827 0004 4FF05002 		mov r2, #80												
 828 0008 82F31188 		msr basepri, r2											
 829 000c BFF36F8F 		isb														
 830 0010 BFF34F8F 		dsb														
 831              	
 832              	@ 0 "" 2
 833              	.LVL68:
 212:Middlewares/Third_Party/FreeRTOS/Source/portable/GCC/ARM_CM3/portmacro.h **** 	(
 213:Middlewares/Third_Party/FreeRTOS/Source/portable/GCC/ARM_CM3/portmacro.h **** 		"	mrs %0, basepri											\n" \
 214:Middlewares/Third_Party/FreeRTOS/Source/portable/GCC/ARM_CM3/portmacro.h **** 		"	mov %1, %2												\n" \
 215:Middlewares/Third_Party/FreeRTOS/Source/portable/GCC/ARM_CM3/portmacro.h **** 		"	msr basepri, %1											\n" \
 216:Middlewares/Third_Party/FreeRTOS/Source/portable/GCC/ARM_CM3/portmacro.h **** 		"	isb														\n" \
 217:Middlewares/Third_Party/FreeRTOS/Source/portable/GCC/ARM_CM3/portmacro.h **** 		"	dsb														\n" \
 218:Middlewares/Third_Party/FreeRTOS/Source/portable/GCC/ARM_CM3/portmacro.h **** 		:"=r" (ulOriginalBASEPRI), "=r" (ulNewBASEPRI) : "i" ( configMAX_SYSCALL_INTERRUPT_PRIORITY ) : "
 219:Middlewares/Third_Party/FreeRTOS/Source/portable/GCC/ARM_CM3/portmacro.h **** 	);
 220:Middlewares/Third_Party/FreeRTOS/Source/portable/GCC/ARM_CM3/portmacro.h **** 
 221:Middlewares/Third_Party/FreeRTOS/Source/portable/GCC/ARM_CM3/portmacro.h **** 	/* This return will not be reached but is necessary to prevent compiler
 222:Middlewares/Third_Party/FreeRTOS/Source/portable/GCC/ARM_CM3/portmacro.h **** 	warnings. */
 223:Middlewares/Third_Party/FreeRTOS/Source/portable/GCC/ARM_CM3/portmacro.h **** 	return ulOriginalBASEPRI;
 834              		.loc 2 223 2 view .LVU242
ARM GAS  C:\Users\Abhinav\AppData\Local\Temp\cc3ESLnv.s 			page 35


 835              		.loc 2 223 2 is_stmt 0 view .LVU243
 836              		.thumb
 837              		.syntax unified
 838              	.LBE58:
 839              	.LBE57:
 496:Middlewares/Third_Party/FreeRTOS/Source/event_groups.c **** 	}
 840              		.loc 1 496 3 is_stmt 1 view .LVU244
 496:Middlewares/Third_Party/FreeRTOS/Source/event_groups.c **** 	}
 841              		.loc 1 496 12 is_stmt 0 view .LVU245
 842 0014 0068     		ldr	r0, [r0]
 843              	.LVL69:
 498:Middlewares/Third_Party/FreeRTOS/Source/event_groups.c **** 
 844              		.loc 1 498 2 is_stmt 1 view .LVU246
 845              	.LBB59:
 846              	.LBI59:
 224:Middlewares/Third_Party/FreeRTOS/Source/portable/GCC/ARM_CM3/portmacro.h **** }
 225:Middlewares/Third_Party/FreeRTOS/Source/portable/GCC/ARM_CM3/portmacro.h **** /*-----------------------------------------------------------*/
 226:Middlewares/Third_Party/FreeRTOS/Source/portable/GCC/ARM_CM3/portmacro.h **** 
 227:Middlewares/Third_Party/FreeRTOS/Source/portable/GCC/ARM_CM3/portmacro.h **** portFORCE_INLINE static void vPortSetBASEPRI( uint32_t ulNewMaskValue )
 847              		.loc 2 227 30 view .LVU247
 848              	.LBB60:
 228:Middlewares/Third_Party/FreeRTOS/Source/portable/GCC/ARM_CM3/portmacro.h **** {
 229:Middlewares/Third_Party/FreeRTOS/Source/portable/GCC/ARM_CM3/portmacro.h **** 	__asm volatile
 849              		.loc 2 229 2 view .LVU248
 850              		.syntax unified
 851              	@ 229 "Middlewares/Third_Party/FreeRTOS/Source/portable/GCC/ARM_CM3/portmacro.h" 1
 852 0016 83F31188 			msr basepri, r3	
 853              	@ 0 "" 2
 854              	.LVL70:
 855              		.loc 2 229 2 is_stmt 0 view .LVU249
 856              		.thumb
 857              		.syntax unified
 858              	.LBE60:
 859              	.LBE59:
 500:Middlewares/Third_Party/FreeRTOS/Source/event_groups.c **** }
 860              		.loc 1 500 2 is_stmt 1 view .LVU250
 501:Middlewares/Third_Party/FreeRTOS/Source/event_groups.c **** /*-----------------------------------------------------------*/
 861              		.loc 1 501 1 is_stmt 0 view .LVU251
 862 001a 7047     		bx	lr
 863              		.cfi_endproc
 864              	.LFE10:
 866              		.section	.text.xEventGroupSetBits,"ax",%progbits
 867              		.align	1
 868              		.global	xEventGroupSetBits
 869              		.syntax unified
 870              		.thumb
 871              		.thumb_func
 873              	xEventGroupSetBits:
 874              	.LVL71:
 875              	.LFB11:
 505:Middlewares/Third_Party/FreeRTOS/Source/event_groups.c **** ListItem_t *pxListItem, *pxNext;
 876              		.loc 1 505 1 is_stmt 1 view -0
 877              		.cfi_startproc
 878              		@ args = 0, pretend = 0, frame = 0
 879              		@ frame_needed = 0, uses_anonymous_args = 0
 505:Middlewares/Third_Party/FreeRTOS/Source/event_groups.c **** ListItem_t *pxListItem, *pxNext;
 880              		.loc 1 505 1 is_stmt 0 view .LVU253
ARM GAS  C:\Users\Abhinav\AppData\Local\Temp\cc3ESLnv.s 			page 36


 881 0000 F8B5     		push	{r3, r4, r5, r6, r7, lr}
 882              		.cfi_def_cfa_offset 24
 883              		.cfi_offset 3, -24
 884              		.cfi_offset 4, -20
 885              		.cfi_offset 5, -16
 886              		.cfi_offset 6, -12
 887              		.cfi_offset 7, -8
 888              		.cfi_offset 14, -4
 506:Middlewares/Third_Party/FreeRTOS/Source/event_groups.c **** ListItem_t const *pxListEnd;
 889              		.loc 1 506 1 is_stmt 1 view .LVU254
 507:Middlewares/Third_Party/FreeRTOS/Source/event_groups.c **** List_t *pxList;
 890              		.loc 1 507 1 view .LVU255
 508:Middlewares/Third_Party/FreeRTOS/Source/event_groups.c **** EventBits_t uxBitsToClear = 0, uxBitsWaitedFor, uxControlBits;
 891              		.loc 1 508 1 view .LVU256
 509:Middlewares/Third_Party/FreeRTOS/Source/event_groups.c **** EventGroup_t *pxEventBits = ( EventGroup_t * ) xEventGroup;
 892              		.loc 1 509 1 view .LVU257
 893              	.LVL72:
 510:Middlewares/Third_Party/FreeRTOS/Source/event_groups.c **** BaseType_t xMatchFound = pdFALSE;
 894              		.loc 1 510 1 view .LVU258
 511:Middlewares/Third_Party/FreeRTOS/Source/event_groups.c **** 
 895              		.loc 1 511 1 view .LVU259
 515:Middlewares/Third_Party/FreeRTOS/Source/event_groups.c **** 	configASSERT( ( uxBitsToSet & eventEVENT_BITS_CONTROL_BYTES ) == 0 );
 896              		.loc 1 515 2 view .LVU260
 897 0002 68B1     		cbz	r0, .L67
 898 0004 0D46     		mov	r5, r1
 899 0006 0446     		mov	r4, r0
 515:Middlewares/Third_Party/FreeRTOS/Source/event_groups.c **** 	configASSERT( ( uxBitsToSet & eventEVENT_BITS_CONTROL_BYTES ) == 0 );
 900              		.loc 1 515 29 discriminator 2 view .LVU261
 516:Middlewares/Third_Party/FreeRTOS/Source/event_groups.c **** 
 901              		.loc 1 516 2 discriminator 2 view .LVU262
 902 0008 B1F1807F 		cmp	r1, #16777216
 903 000c 11D3     		bcc	.L58
 516:Middlewares/Third_Party/FreeRTOS/Source/event_groups.c **** 
 904              		.loc 1 516 2 view .LVU263
 905              	.LBB61:
 906              	.LBI61:
 191:Middlewares/Third_Party/FreeRTOS/Source/portable/GCC/ARM_CM3/portmacro.h **** {
 907              		.loc 2 191 30 view .LVU264
 908              	.LBB62:
 193:Middlewares/Third_Party/FreeRTOS/Source/portable/GCC/ARM_CM3/portmacro.h **** 
 909              		.loc 2 193 1 view .LVU265
 195:Middlewares/Third_Party/FreeRTOS/Source/portable/GCC/ARM_CM3/portmacro.h **** 	(
 910              		.loc 2 195 2 view .LVU266
 911              		.syntax unified
 912              	@ 195 "Middlewares/Third_Party/FreeRTOS/Source/portable/GCC/ARM_CM3/portmacro.h" 1
 913 000e 4FF05003 			mov r3, #80												
 914 0012 83F31188 		msr basepri, r3											
 915 0016 BFF36F8F 		isb														
 916 001a BFF34F8F 		dsb														
 917              	
 918              	@ 0 "" 2
 919              	.LVL73:
 920              		.thumb
 921              		.syntax unified
 922              	.L59:
 195:Middlewares/Third_Party/FreeRTOS/Source/portable/GCC/ARM_CM3/portmacro.h **** 	(
 923              		.loc 2 195 2 is_stmt 0 view .LVU267
ARM GAS  C:\Users\Abhinav\AppData\Local\Temp\cc3ESLnv.s 			page 37


 924              	.LBE62:
 925              	.LBE61:
 516:Middlewares/Third_Party/FreeRTOS/Source/event_groups.c **** 
 926              		.loc 1 516 2 is_stmt 1 discriminator 2 view .LVU268
 516:Middlewares/Third_Party/FreeRTOS/Source/event_groups.c **** 
 927              		.loc 1 516 2 discriminator 2 view .LVU269
 928 001e FEE7     		b	.L59
 929              	.L67:
 515:Middlewares/Third_Party/FreeRTOS/Source/event_groups.c **** 	configASSERT( ( uxBitsToSet & eventEVENT_BITS_CONTROL_BYTES ) == 0 );
 930              		.loc 1 515 2 view .LVU270
 931              	.LBB63:
 932              	.LBI63:
 191:Middlewares/Third_Party/FreeRTOS/Source/portable/GCC/ARM_CM3/portmacro.h **** {
 933              		.loc 2 191 30 view .LVU271
 934              	.LBB64:
 193:Middlewares/Third_Party/FreeRTOS/Source/portable/GCC/ARM_CM3/portmacro.h **** 
 935              		.loc 2 193 1 view .LVU272
 195:Middlewares/Third_Party/FreeRTOS/Source/portable/GCC/ARM_CM3/portmacro.h **** 	(
 936              		.loc 2 195 2 view .LVU273
 937              		.syntax unified
 938              	@ 195 "Middlewares/Third_Party/FreeRTOS/Source/portable/GCC/ARM_CM3/portmacro.h" 1
 939 0020 4FF05003 			mov r3, #80												
 940 0024 83F31188 		msr basepri, r3											
 941 0028 BFF36F8F 		isb														
 942 002c BFF34F8F 		dsb														
 943              	
 944              	@ 0 "" 2
 945              	.LVL74:
 946              		.thumb
 947              		.syntax unified
 948              	.L57:
 195:Middlewares/Third_Party/FreeRTOS/Source/portable/GCC/ARM_CM3/portmacro.h **** 	(
 949              		.loc 2 195 2 is_stmt 0 view .LVU274
 950              	.LBE64:
 951              	.LBE63:
 515:Middlewares/Third_Party/FreeRTOS/Source/event_groups.c **** 	configASSERT( ( uxBitsToSet & eventEVENT_BITS_CONTROL_BYTES ) == 0 );
 952              		.loc 1 515 2 is_stmt 1 discriminator 1 view .LVU275
 515:Middlewares/Third_Party/FreeRTOS/Source/event_groups.c **** 	configASSERT( ( uxBitsToSet & eventEVENT_BITS_CONTROL_BYTES ) == 0 );
 953              		.loc 1 515 2 discriminator 1 view .LVU276
 954 0030 FEE7     		b	.L57
 955              	.L58:
 516:Middlewares/Third_Party/FreeRTOS/Source/event_groups.c **** 
 956              		.loc 1 516 70 discriminator 2 view .LVU277
 518:Middlewares/Third_Party/FreeRTOS/Source/event_groups.c **** 	pxListEnd = listGET_END_MARKER( pxList ); /*lint !e826 !e740 The mini list structure is used as th
 957              		.loc 1 518 2 discriminator 2 view .LVU278
 958              	.LVL75:
 519:Middlewares/Third_Party/FreeRTOS/Source/event_groups.c **** 	vTaskSuspendAll();
 959              		.loc 1 519 2 discriminator 2 view .LVU279
 519:Middlewares/Third_Party/FreeRTOS/Source/event_groups.c **** 	vTaskSuspendAll();
 960              		.loc 1 519 12 is_stmt 0 discriminator 2 view .LVU280
 961 0032 00F10C06 		add	r6, r0, #12
 962              	.LVL76:
 520:Middlewares/Third_Party/FreeRTOS/Source/event_groups.c **** 	{
 963              		.loc 1 520 2 is_stmt 1 discriminator 2 view .LVU281
 964 0036 FFF7FEFF 		bl	vTaskSuspendAll
 965              	.LVL77:
 522:Middlewares/Third_Party/FreeRTOS/Source/event_groups.c **** 
ARM GAS  C:\Users\Abhinav\AppData\Local\Temp\cc3ESLnv.s 			page 38


 966              		.loc 1 522 56 discriminator 2 view .LVU282
 524:Middlewares/Third_Party/FreeRTOS/Source/event_groups.c **** 
 967              		.loc 1 524 3 discriminator 2 view .LVU283
 524:Middlewares/Third_Party/FreeRTOS/Source/event_groups.c **** 
 968              		.loc 1 524 14 is_stmt 0 discriminator 2 view .LVU284
 969 003a 2069     		ldr	r0, [r4, #16]
 970              	.LVL78:
 527:Middlewares/Third_Party/FreeRTOS/Source/event_groups.c **** 
 971              		.loc 1 527 3 is_stmt 1 discriminator 2 view .LVU285
 527:Middlewares/Third_Party/FreeRTOS/Source/event_groups.c **** 
 972              		.loc 1 527 14 is_stmt 0 discriminator 2 view .LVU286
 973 003c 2368     		ldr	r3, [r4]
 527:Middlewares/Third_Party/FreeRTOS/Source/event_groups.c **** 
 974              		.loc 1 527 28 discriminator 2 view .LVU287
 975 003e 2B43     		orrs	r3, r3, r5
 976 0040 2360     		str	r3, [r4]
 530:Middlewares/Third_Party/FreeRTOS/Source/event_groups.c **** 		{
 977              		.loc 1 530 3 is_stmt 1 discriminator 2 view .LVU288
 509:Middlewares/Third_Party/FreeRTOS/Source/event_groups.c **** EventGroup_t *pxEventBits = ( EventGroup_t * ) xEventGroup;
 978              		.loc 1 509 13 is_stmt 0 discriminator 2 view .LVU289
 979 0042 0027     		movs	r7, #0
 530:Middlewares/Third_Party/FreeRTOS/Source/event_groups.c **** 		{
 980              		.loc 1 530 8 discriminator 2 view .LVU290
 981 0044 0AE0     		b	.L60
 982              	.LVL79:
 983              	.L61:
 552:Middlewares/Third_Party/FreeRTOS/Source/event_groups.c **** 			{
 984              		.loc 1 552 9 is_stmt 1 view .LVU291
 552:Middlewares/Third_Party/FreeRTOS/Source/event_groups.c **** 			{
 985              		.loc 1 552 44 is_stmt 0 view .LVU292
 986 0046 2168     		ldr	r1, [r4]
 552:Middlewares/Third_Party/FreeRTOS/Source/event_groups.c **** 			{
 987              		.loc 1 552 11 view .LVU293
 988 0048 32EA0101 		bics	r1, r2, r1
 989 004c 05D1     		bne	.L63
 552:Middlewares/Third_Party/FreeRTOS/Source/event_groups.c **** 			{
 990              		.loc 1 552 11 view .LVU294
 991 004e 11E0     		b	.L62
 992              	.LVL80:
 993              	.L64:
 571:Middlewares/Third_Party/FreeRTOS/Source/event_groups.c **** 				}
 994              		.loc 1 571 30 is_stmt 1 view .LVU295
 579:Middlewares/Third_Party/FreeRTOS/Source/event_groups.c **** 			}
 995              		.loc 1 579 5 view .LVU296
 579:Middlewares/Third_Party/FreeRTOS/Source/event_groups.c **** 			}
 996              		.loc 1 579 63 is_stmt 0 view .LVU297
 997 0050 2168     		ldr	r1, [r4]
 579:Middlewares/Third_Party/FreeRTOS/Source/event_groups.c **** 			}
 998              		.loc 1 579 5 view .LVU298
 999 0052 41F00071 		orr	r1, r1, #33554432
 1000 0056 FFF7FEFF 		bl	vTaskRemoveFromUnorderedEventList
 1001              	.LVL81:
 1002              	.L63:
 505:Middlewares/Third_Party/FreeRTOS/Source/event_groups.c **** ListItem_t *pxListItem, *pxNext;
 1003              		.loc 1 505 1 view .LVU299
 1004 005a 2846     		mov	r0, r5
 1005              	.LVL82:
ARM GAS  C:\Users\Abhinav\AppData\Local\Temp\cc3ESLnv.s 			page 39


 1006              	.L60:
 530:Middlewares/Third_Party/FreeRTOS/Source/event_groups.c **** 		{
 1007              		.loc 1 530 21 is_stmt 1 view .LVU300
 1008 005c B042     		cmp	r0, r6
 1009 005e 0ED0     		beq	.L68
 532:Middlewares/Third_Party/FreeRTOS/Source/event_groups.c **** 			uxBitsWaitedFor = listGET_LIST_ITEM_VALUE( pxListItem );
 1010              		.loc 1 532 4 view .LVU301
 532:Middlewares/Third_Party/FreeRTOS/Source/event_groups.c **** 			uxBitsWaitedFor = listGET_LIST_ITEM_VALUE( pxListItem );
 1011              		.loc 1 532 11 is_stmt 0 view .LVU302
 1012 0060 4568     		ldr	r5, [r0, #4]
 1013              	.LVL83:
 533:Middlewares/Third_Party/FreeRTOS/Source/event_groups.c **** 			xMatchFound = pdFALSE;
 1014              		.loc 1 533 4 is_stmt 1 view .LVU303
 533:Middlewares/Third_Party/FreeRTOS/Source/event_groups.c **** 			xMatchFound = pdFALSE;
 1015              		.loc 1 533 20 is_stmt 0 view .LVU304
 1016 0062 0368     		ldr	r3, [r0]
 1017              	.LVL84:
 534:Middlewares/Third_Party/FreeRTOS/Source/event_groups.c **** 
 1018              		.loc 1 534 4 is_stmt 1 view .LVU305
 537:Middlewares/Third_Party/FreeRTOS/Source/event_groups.c **** 			uxBitsWaitedFor &= ~eventEVENT_BITS_CONTROL_BYTES;
 1019              		.loc 1 537 4 view .LVU306
 538:Middlewares/Third_Party/FreeRTOS/Source/event_groups.c **** 
 1020              		.loc 1 538 4 view .LVU307
 538:Middlewares/Third_Party/FreeRTOS/Source/event_groups.c **** 
 1021              		.loc 1 538 20 is_stmt 0 view .LVU308
 1022 0064 23F07F42 		bic	r2, r3, #-16777216
 1023              	.LVL85:
 540:Middlewares/Third_Party/FreeRTOS/Source/event_groups.c **** 			{
 1024              		.loc 1 540 4 is_stmt 1 view .LVU309
 540:Middlewares/Third_Party/FreeRTOS/Source/event_groups.c **** 			{
 1025              		.loc 1 540 6 is_stmt 0 view .LVU310
 1026 0068 13F0806F 		tst	r3, #67108864
 1027 006c EBD1     		bne	.L61
 543:Middlewares/Third_Party/FreeRTOS/Source/event_groups.c **** 				{
 1028              		.loc 1 543 5 is_stmt 1 view .LVU311
 543:Middlewares/Third_Party/FreeRTOS/Source/event_groups.c **** 				{
 1029              		.loc 1 543 40 is_stmt 0 view .LVU312
 1030 006e 2168     		ldr	r1, [r4]
 543:Middlewares/Third_Party/FreeRTOS/Source/event_groups.c **** 				{
 1031              		.loc 1 543 7 view .LVU313
 1032 0070 1142     		tst	r1, r2
 1033 0072 F2D0     		beq	.L63
 1034              	.L62:
 1035              	.LVL86:
 565:Middlewares/Third_Party/FreeRTOS/Source/event_groups.c **** 				{
 1036              		.loc 1 565 5 is_stmt 1 view .LVU314
 565:Middlewares/Third_Party/FreeRTOS/Source/event_groups.c **** 				{
 1037              		.loc 1 565 7 is_stmt 0 view .LVU315
 1038 0074 13F0807F 		tst	r3, #16777216
 1039 0078 EAD0     		beq	.L64
 567:Middlewares/Third_Party/FreeRTOS/Source/event_groups.c **** 				}
 1040              		.loc 1 567 6 is_stmt 1 view .LVU316
 567:Middlewares/Third_Party/FreeRTOS/Source/event_groups.c **** 				}
 1041              		.loc 1 567 20 is_stmt 0 view .LVU317
 1042 007a 1743     		orrs	r7, r7, r2
 1043              	.LVL87:
 567:Middlewares/Third_Party/FreeRTOS/Source/event_groups.c **** 				}
ARM GAS  C:\Users\Abhinav\AppData\Local\Temp\cc3ESLnv.s 			page 40


 1044              		.loc 1 567 20 view .LVU318
 1045 007c E8E7     		b	.L64
 1046              	.LVL88:
 1047              	.L68:
 590:Middlewares/Third_Party/FreeRTOS/Source/event_groups.c **** 	}
 1048              		.loc 1 590 3 is_stmt 1 view .LVU319
 590:Middlewares/Third_Party/FreeRTOS/Source/event_groups.c **** 	}
 1049              		.loc 1 590 14 is_stmt 0 view .LVU320
 1050 007e 2368     		ldr	r3, [r4]
 590:Middlewares/Third_Party/FreeRTOS/Source/event_groups.c **** 	}
 1051              		.loc 1 590 28 view .LVU321
 1052 0080 23EA0703 		bic	r3, r3, r7
 1053 0084 2360     		str	r3, [r4]
 592:Middlewares/Third_Party/FreeRTOS/Source/event_groups.c **** 
 1054              		.loc 1 592 2 is_stmt 1 view .LVU322
 592:Middlewares/Third_Party/FreeRTOS/Source/event_groups.c **** 
 1055              		.loc 1 592 11 is_stmt 0 view .LVU323
 1056 0086 FFF7FEFF 		bl	xTaskResumeAll
 1057              	.LVL89:
 594:Middlewares/Third_Party/FreeRTOS/Source/event_groups.c **** }
 1058              		.loc 1 594 2 is_stmt 1 view .LVU324
 595:Middlewares/Third_Party/FreeRTOS/Source/event_groups.c **** /*-----------------------------------------------------------*/
 1059              		.loc 1 595 1 is_stmt 0 view .LVU325
 1060 008a 2068     		ldr	r0, [r4]
 1061 008c F8BD     		pop	{r3, r4, r5, r6, r7, pc}
 595:Middlewares/Third_Party/FreeRTOS/Source/event_groups.c **** /*-----------------------------------------------------------*/
 1062              		.loc 1 595 1 view .LVU326
 1063              		.cfi_endproc
 1064              	.LFE11:
 1066              		.section	.text.xEventGroupSync,"ax",%progbits
 1067              		.align	1
 1068              		.global	xEventGroupSync
 1069              		.syntax unified
 1070              		.thumb
 1071              		.thumb_func
 1073              	xEventGroupSync:
 1074              	.LVL90:
 1075              	.LFB6:
 177:Middlewares/Third_Party/FreeRTOS/Source/event_groups.c **** EventBits_t uxOriginalBitValue, uxReturn;
 1076              		.loc 1 177 1 is_stmt 1 view -0
 1077              		.cfi_startproc
 1078              		@ args = 0, pretend = 0, frame = 0
 1079              		@ frame_needed = 0, uses_anonymous_args = 0
 178:Middlewares/Third_Party/FreeRTOS/Source/event_groups.c **** EventGroup_t *pxEventBits = ( EventGroup_t * ) xEventGroup;
 1080              		.loc 1 178 1 view .LVU328
 179:Middlewares/Third_Party/FreeRTOS/Source/event_groups.c **** BaseType_t xAlreadyYielded;
 1081              		.loc 1 179 1 view .LVU329
 180:Middlewares/Third_Party/FreeRTOS/Source/event_groups.c **** BaseType_t xTimeoutOccurred = pdFALSE;
 1082              		.loc 1 180 1 view .LVU330
 181:Middlewares/Third_Party/FreeRTOS/Source/event_groups.c **** 
 1083              		.loc 1 181 1 view .LVU331
 183:Middlewares/Third_Party/FreeRTOS/Source/event_groups.c **** 	configASSERT( uxBitsToWaitFor != 0 );
 1084              		.loc 1 183 2 view .LVU332
 1085 0000 B2F1807F 		cmp	r2, #16777216
 1086 0004 08D3     		bcc	.L70
 183:Middlewares/Third_Party/FreeRTOS/Source/event_groups.c **** 	configASSERT( uxBitsToWaitFor != 0 );
 1087              		.loc 1 183 2 view .LVU333
ARM GAS  C:\Users\Abhinav\AppData\Local\Temp\cc3ESLnv.s 			page 41


 1088              	.LBB65:
 1089              	.LBI65:
 191:Middlewares/Third_Party/FreeRTOS/Source/portable/GCC/ARM_CM3/portmacro.h **** {
 1090              		.loc 2 191 30 view .LVU334
 1091              	.LBB66:
 193:Middlewares/Third_Party/FreeRTOS/Source/portable/GCC/ARM_CM3/portmacro.h **** 
 1092              		.loc 2 193 1 view .LVU335
 195:Middlewares/Third_Party/FreeRTOS/Source/portable/GCC/ARM_CM3/portmacro.h **** 	(
 1093              		.loc 2 195 2 view .LVU336
 1094              		.syntax unified
 1095              	@ 195 "Middlewares/Third_Party/FreeRTOS/Source/portable/GCC/ARM_CM3/portmacro.h" 1
 1096 0006 4FF05003 			mov r3, #80												
 1097 000a 83F31188 		msr basepri, r3											
 1098 000e BFF36F8F 		isb														
 1099 0012 BFF34F8F 		dsb														
 1100              	
 1101              	@ 0 "" 2
 1102              	.LVL91:
 1103              		.thumb
 1104              		.syntax unified
 1105              	.L71:
 195:Middlewares/Third_Party/FreeRTOS/Source/portable/GCC/ARM_CM3/portmacro.h **** 	(
 1106              		.loc 2 195 2 is_stmt 0 view .LVU337
 1107              	.LBE66:
 1108              	.LBE65:
 183:Middlewares/Third_Party/FreeRTOS/Source/event_groups.c **** 	configASSERT( uxBitsToWaitFor != 0 );
 1109              		.loc 1 183 2 is_stmt 1 discriminator 1 view .LVU338
 183:Middlewares/Third_Party/FreeRTOS/Source/event_groups.c **** 	configASSERT( uxBitsToWaitFor != 0 );
 1110              		.loc 1 183 2 discriminator 1 view .LVU339
 1111 0016 FEE7     		b	.L71
 1112              	.LVL92:
 1113              	.L70:
 177:Middlewares/Third_Party/FreeRTOS/Source/event_groups.c **** EventBits_t uxOriginalBitValue, uxReturn;
 1114              		.loc 1 177 1 is_stmt 0 discriminator 2 view .LVU340
 1115 0018 2DE9F041 		push	{r4, r5, r6, r7, r8, lr}
 1116              		.cfi_def_cfa_offset 24
 1117              		.cfi_offset 4, -24
 1118              		.cfi_offset 5, -20
 1119              		.cfi_offset 6, -16
 1120              		.cfi_offset 7, -12
 1121              		.cfi_offset 8, -8
 1122              		.cfi_offset 14, -4
 1123 001c 0746     		mov	r7, r0
 1124 001e 0D46     		mov	r5, r1
 1125 0020 1446     		mov	r4, r2
 1126 0022 1E46     		mov	r6, r3
 183:Middlewares/Third_Party/FreeRTOS/Source/event_groups.c **** 	configASSERT( uxBitsToWaitFor != 0 );
 1127              		.loc 1 183 74 is_stmt 1 discriminator 2 view .LVU341
 184:Middlewares/Third_Party/FreeRTOS/Source/event_groups.c **** 	#if ( ( INCLUDE_xTaskGetSchedulerState == 1 ) || ( configUSE_TIMERS == 1 ) )
 1128              		.loc 1 184 2 discriminator 2 view .LVU342
 1129 0024 42B9     		cbnz	r2, .L72
 184:Middlewares/Third_Party/FreeRTOS/Source/event_groups.c **** 	#if ( ( INCLUDE_xTaskGetSchedulerState == 1 ) || ( configUSE_TIMERS == 1 ) )
 1130              		.loc 1 184 2 view .LVU343
 1131              	.LBB67:
 1132              	.LBI67:
 191:Middlewares/Third_Party/FreeRTOS/Source/portable/GCC/ARM_CM3/portmacro.h **** {
 1133              		.loc 2 191 30 view .LVU344
ARM GAS  C:\Users\Abhinav\AppData\Local\Temp\cc3ESLnv.s 			page 42


 1134              	.LBB68:
 193:Middlewares/Third_Party/FreeRTOS/Source/portable/GCC/ARM_CM3/portmacro.h **** 
 1135              		.loc 2 193 1 view .LVU345
 195:Middlewares/Third_Party/FreeRTOS/Source/portable/GCC/ARM_CM3/portmacro.h **** 	(
 1136              		.loc 2 195 2 view .LVU346
 1137              		.syntax unified
 1138              	@ 195 "Middlewares/Third_Party/FreeRTOS/Source/portable/GCC/ARM_CM3/portmacro.h" 1
 1139 0026 4FF05003 			mov r3, #80												
 1140 002a 83F31188 		msr basepri, r3											
 1141 002e BFF36F8F 		isb														
 1142 0032 BFF34F8F 		dsb														
 1143              	
 1144              	@ 0 "" 2
 1145              	.LVL93:
 1146              		.thumb
 1147              		.syntax unified
 1148              	.L73:
 195:Middlewares/Third_Party/FreeRTOS/Source/portable/GCC/ARM_CM3/portmacro.h **** 	(
 1149              		.loc 2 195 2 is_stmt 0 view .LVU347
 1150              	.LBE68:
 1151              	.LBE67:
 184:Middlewares/Third_Party/FreeRTOS/Source/event_groups.c **** 	#if ( ( INCLUDE_xTaskGetSchedulerState == 1 ) || ( configUSE_TIMERS == 1 ) )
 1152              		.loc 1 184 2 is_stmt 1 discriminator 2 view .LVU348
 184:Middlewares/Third_Party/FreeRTOS/Source/event_groups.c **** 	#if ( ( INCLUDE_xTaskGetSchedulerState == 1 ) || ( configUSE_TIMERS == 1 ) )
 1153              		.loc 1 184 2 discriminator 2 view .LVU349
 1154 0036 FEE7     		b	.L73
 1155              	.LVL94:
 1156              	.L72:
 184:Middlewares/Third_Party/FreeRTOS/Source/event_groups.c **** 	#if ( ( INCLUDE_xTaskGetSchedulerState == 1 ) || ( configUSE_TIMERS == 1 ) )
 1157              		.loc 1 184 38 discriminator 2 view .LVU350
 187:Middlewares/Third_Party/FreeRTOS/Source/event_groups.c **** 	}
 1158              		.loc 1 187 3 discriminator 2 view .LVU351
 1159 0038 FFF7FEFF 		bl	xTaskGetSchedulerState
 1160              	.LVL95:
 187:Middlewares/Third_Party/FreeRTOS/Source/event_groups.c **** 	}
 1161              		.loc 1 187 3 is_stmt 0 discriminator 2 view .LVU352
 1162 003c 48B9     		cbnz	r0, .L74
 1163 003e 46B1     		cbz	r6, .L74
 187:Middlewares/Third_Party/FreeRTOS/Source/event_groups.c **** 	}
 1164              		.loc 1 187 3 is_stmt 1 view .LVU353
 1165              	.LBB69:
 1166              	.LBI69:
 191:Middlewares/Third_Party/FreeRTOS/Source/portable/GCC/ARM_CM3/portmacro.h **** {
 1167              		.loc 2 191 30 view .LVU354
 1168              	.LBB70:
 193:Middlewares/Third_Party/FreeRTOS/Source/portable/GCC/ARM_CM3/portmacro.h **** 
 1169              		.loc 2 193 1 view .LVU355
 195:Middlewares/Third_Party/FreeRTOS/Source/portable/GCC/ARM_CM3/portmacro.h **** 	(
 1170              		.loc 2 195 2 view .LVU356
 1171              		.syntax unified
 1172              	@ 195 "Middlewares/Third_Party/FreeRTOS/Source/portable/GCC/ARM_CM3/portmacro.h" 1
 1173 0040 4FF05003 			mov r3, #80												
 1174 0044 83F31188 		msr basepri, r3											
 1175 0048 BFF36F8F 		isb														
 1176 004c BFF34F8F 		dsb														
 1177              	
 1178              	@ 0 "" 2
ARM GAS  C:\Users\Abhinav\AppData\Local\Temp\cc3ESLnv.s 			page 43


 1179              	.LVL96:
 1180              		.thumb
 1181              		.syntax unified
 1182              	.L75:
 195:Middlewares/Third_Party/FreeRTOS/Source/portable/GCC/ARM_CM3/portmacro.h **** 	(
 1183              		.loc 2 195 2 is_stmt 0 view .LVU357
 1184              	.LBE70:
 1185              	.LBE69:
 187:Middlewares/Third_Party/FreeRTOS/Source/event_groups.c **** 	}
 1186              		.loc 1 187 3 is_stmt 1 discriminator 3 view .LVU358
 187:Middlewares/Third_Party/FreeRTOS/Source/event_groups.c **** 	}
 1187              		.loc 1 187 3 discriminator 3 view .LVU359
 1188 0050 FEE7     		b	.L75
 1189              	.L74:
 187:Middlewares/Third_Party/FreeRTOS/Source/event_groups.c **** 	}
 1190              		.loc 1 187 104 discriminator 8 view .LVU360
 191:Middlewares/Third_Party/FreeRTOS/Source/event_groups.c **** 	{
 1191              		.loc 1 191 2 discriminator 8 view .LVU361
 1192 0052 FFF7FEFF 		bl	vTaskSuspendAll
 1193              	.LVL97:
 193:Middlewares/Third_Party/FreeRTOS/Source/event_groups.c **** 
 1194              		.loc 1 193 3 discriminator 8 view .LVU362
 193:Middlewares/Third_Party/FreeRTOS/Source/event_groups.c **** 
 1195              		.loc 1 193 22 is_stmt 0 discriminator 8 view .LVU363
 1196 0056 D7F80080 		ldr	r8, [r7]
 1197              	.LVL98:
 195:Middlewares/Third_Party/FreeRTOS/Source/event_groups.c **** 
 1198              		.loc 1 195 3 is_stmt 1 discriminator 8 view .LVU364
 195:Middlewares/Third_Party/FreeRTOS/Source/event_groups.c **** 
 1199              		.loc 1 195 12 is_stmt 0 discriminator 8 view .LVU365
 1200 005a 2946     		mov	r1, r5
 1201 005c 3846     		mov	r0, r7
 1202 005e FFF7FEFF 		bl	xEventGroupSetBits
 1203              	.LVL99:
 197:Middlewares/Third_Party/FreeRTOS/Source/event_groups.c **** 		{
 1204              		.loc 1 197 3 is_stmt 1 discriminator 8 view .LVU366
 197:Middlewares/Third_Party/FreeRTOS/Source/event_groups.c **** 		{
 1205              		.loc 1 197 30 is_stmt 0 discriminator 8 view .LVU367
 1206 0062 48EA0505 		orr	r5, r8, r5
 1207              	.LVL100:
 197:Middlewares/Third_Party/FreeRTOS/Source/event_groups.c **** 		{
 1208              		.loc 1 197 5 discriminator 8 view .LVU368
 1209 0066 34EA0503 		bics	r3, r4, r5
 1210 006a 1AD0     		beq	.L85
 210:Middlewares/Third_Party/FreeRTOS/Source/event_groups.c **** 			{
 1211              		.loc 1 210 4 is_stmt 1 view .LVU369
 210:Middlewares/Third_Party/FreeRTOS/Source/event_groups.c **** 			{
 1212              		.loc 1 210 6 is_stmt 0 view .LVU370
 1213 006c FEB9     		cbnz	r6, .L86
 229:Middlewares/Third_Party/FreeRTOS/Source/event_groups.c **** 				xTimeoutOccurred = pdTRUE;
 1214              		.loc 1 229 5 is_stmt 1 view .LVU371
 229:Middlewares/Third_Party/FreeRTOS/Source/event_groups.c **** 				xTimeoutOccurred = pdTRUE;
 1215              		.loc 1 229 14 is_stmt 0 view .LVU372
 1216 006e 3D68     		ldr	r5, [r7]
 1217              	.LVL101:
 230:Middlewares/Third_Party/FreeRTOS/Source/event_groups.c **** 			}
 1218              		.loc 1 230 5 is_stmt 1 view .LVU373
ARM GAS  C:\Users\Abhinav\AppData\Local\Temp\cc3ESLnv.s 			page 44


 1219              	.L77:
 234:Middlewares/Third_Party/FreeRTOS/Source/event_groups.c **** 
 1220              		.loc 1 234 2 view .LVU374
 234:Middlewares/Third_Party/FreeRTOS/Source/event_groups.c **** 
 1221              		.loc 1 234 20 is_stmt 0 view .LVU375
 1222 0070 FFF7FEFF 		bl	xTaskResumeAll
 1223              	.LVL102:
 236:Middlewares/Third_Party/FreeRTOS/Source/event_groups.c **** 	{
 1224              		.loc 1 236 2 is_stmt 1 view .LVU376
 236:Middlewares/Third_Party/FreeRTOS/Source/event_groups.c **** 	{
 1225              		.loc 1 236 4 is_stmt 0 view .LVU377
 1226 0074 96B1     		cbz	r6, .L69
 238:Middlewares/Third_Party/FreeRTOS/Source/event_groups.c **** 		{
 1227              		.loc 1 238 3 is_stmt 1 view .LVU378
 238:Middlewares/Third_Party/FreeRTOS/Source/event_groups.c **** 		{
 1228              		.loc 1 238 5 is_stmt 0 view .LVU379
 1229 0076 48B9     		cbnz	r0, .L80
 240:Middlewares/Third_Party/FreeRTOS/Source/event_groups.c **** 		}
 1230              		.loc 1 240 4 is_stmt 1 view .LVU380
 1231 0078 4FF0E023 		mov	r3, #-536813568
 1232 007c 4FF08052 		mov	r2, #268435456
 1233 0080 C3F8042D 		str	r2, [r3, #3332]
 240:Middlewares/Third_Party/FreeRTOS/Source/event_groups.c **** 		}
 1234              		.loc 1 240 4 view .LVU381
 1235              		.syntax unified
 1236              	@ 240 "Middlewares/Third_Party/FreeRTOS/Source/event_groups.c" 1
 1237 0084 BFF34F8F 		dsb
 1238              	@ 0 "" 2
 240:Middlewares/Third_Party/FreeRTOS/Source/event_groups.c **** 		}
 1239              		.loc 1 240 4 view .LVU382
 1240              	@ 240 "Middlewares/Third_Party/FreeRTOS/Source/event_groups.c" 1
 1241 0088 BFF36F8F 		isb
 1242              	@ 0 "" 2
 240:Middlewares/Third_Party/FreeRTOS/Source/event_groups.c **** 		}
 1243              		.loc 1 240 26 view .LVU383
 1244              		.thumb
 1245              		.syntax unified
 1246              	.L80:
 244:Middlewares/Third_Party/FreeRTOS/Source/event_groups.c **** 		}
 1247              		.loc 1 244 28 view .LVU384
 251:Middlewares/Third_Party/FreeRTOS/Source/event_groups.c **** 
 1248              		.loc 1 251 3 view .LVU385
 251:Middlewares/Third_Party/FreeRTOS/Source/event_groups.c **** 
 1249              		.loc 1 251 14 is_stmt 0 view .LVU386
 1250 008c FFF7FEFF 		bl	uxTaskResetEventItemValue
 1251              	.LVL103:
 251:Middlewares/Third_Party/FreeRTOS/Source/event_groups.c **** 
 1252              		.loc 1 251 14 view .LVU387
 1253 0090 0546     		mov	r5, r0
 1254              	.LVL104:
 253:Middlewares/Third_Party/FreeRTOS/Source/event_groups.c **** 		{
 1255              		.loc 1 253 3 is_stmt 1 view .LVU388
 253:Middlewares/Third_Party/FreeRTOS/Source/event_groups.c **** 		{
 1256              		.loc 1 253 5 is_stmt 0 view .LVU389
 1257 0092 10F0007F 		tst	r0, #33554432
 1258 0096 12D0     		beq	.L87
 1259              	.LVL105:
ARM GAS  C:\Users\Abhinav\AppData\Local\Temp\cc3ESLnv.s 			page 45


 1260              	.L81:
 280:Middlewares/Third_Party/FreeRTOS/Source/event_groups.c **** 
 1261              		.loc 1 280 3 is_stmt 1 view .LVU390
 284:Middlewares/Third_Party/FreeRTOS/Source/event_groups.c **** 	}
 1262              		.loc 1 284 3 view .LVU391
 284:Middlewares/Third_Party/FreeRTOS/Source/event_groups.c **** 	}
 1263              		.loc 1 284 12 is_stmt 0 view .LVU392
 1264 0098 25F07F45 		bic	r5, r5, #-16777216
 1265              	.LVL106:
 287:Middlewares/Third_Party/FreeRTOS/Source/event_groups.c **** 
 1266              		.loc 1 287 2 is_stmt 1 view .LVU393
 290:Middlewares/Third_Party/FreeRTOS/Source/event_groups.c **** 
 1267              		.loc 1 290 2 view .LVU394
 292:Middlewares/Third_Party/FreeRTOS/Source/event_groups.c **** }
 1268              		.loc 1 292 2 view .LVU395
 1269              	.L69:
 293:Middlewares/Third_Party/FreeRTOS/Source/event_groups.c **** /*-----------------------------------------------------------*/
 1270              		.loc 1 293 1 is_stmt 0 view .LVU396
 1271 009c 2846     		mov	r0, r5
 1272 009e BDE8F081 		pop	{r4, r5, r6, r7, r8, pc}
 1273              	.LVL107:
 1274              	.L85:
 200:Middlewares/Third_Party/FreeRTOS/Source/event_groups.c **** 
 1275              		.loc 1 200 4 is_stmt 1 view .LVU397
 204:Middlewares/Third_Party/FreeRTOS/Source/event_groups.c **** 
 1276              		.loc 1 204 4 view .LVU398
 204:Middlewares/Third_Party/FreeRTOS/Source/event_groups.c **** 
 1277              		.loc 1 204 15 is_stmt 0 view .LVU399
 1278 00a2 3B68     		ldr	r3, [r7]
 204:Middlewares/Third_Party/FreeRTOS/Source/event_groups.c **** 
 1279              		.loc 1 204 29 view .LVU400
 1280 00a4 23EA0403 		bic	r3, r3, r4
 1281 00a8 3B60     		str	r3, [r7]
 206:Middlewares/Third_Party/FreeRTOS/Source/event_groups.c **** 		}
 1282              		.loc 1 206 4 is_stmt 1 view .LVU401
 1283              	.LVL108:
 206:Middlewares/Third_Party/FreeRTOS/Source/event_groups.c **** 		}
 1284              		.loc 1 206 17 is_stmt 0 view .LVU402
 1285 00aa 0026     		movs	r6, #0
 1286 00ac E0E7     		b	.L77
 1287              	.LVL109:
 1288              	.L86:
 212:Middlewares/Third_Party/FreeRTOS/Source/event_groups.c **** 
 1289              		.loc 1 212 77 is_stmt 1 view .LVU403
 217:Middlewares/Third_Party/FreeRTOS/Source/event_groups.c **** 
 1290              		.loc 1 217 5 view .LVU404
 1291 00ae 3246     		mov	r2, r6
 1292 00b0 44F0A061 		orr	r1, r4, #83886080
 1293 00b4 381D     		adds	r0, r7, #4
 1294 00b6 FFF7FEFF 		bl	vTaskPlaceOnUnorderedEventList
 1295              	.LVL110:
 223:Middlewares/Third_Party/FreeRTOS/Source/event_groups.c **** 			}
 1296              		.loc 1 223 5 view .LVU405
 223:Middlewares/Third_Party/FreeRTOS/Source/event_groups.c **** 			}
 1297              		.loc 1 223 14 is_stmt 0 view .LVU406
 1298 00ba 0025     		movs	r5, #0
 1299 00bc D8E7     		b	.L77
ARM GAS  C:\Users\Abhinav\AppData\Local\Temp\cc3ESLnv.s 			page 46


 1300              	.LVL111:
 1301              	.L87:
 256:Middlewares/Third_Party/FreeRTOS/Source/event_groups.c **** 			{
 1302              		.loc 1 256 4 is_stmt 1 view .LVU407
 1303 00be FFF7FEFF 		bl	vPortEnterCritical
 1304              	.LVL112:
 258:Middlewares/Third_Party/FreeRTOS/Source/event_groups.c **** 
 1305              		.loc 1 258 5 view .LVU408
 258:Middlewares/Third_Party/FreeRTOS/Source/event_groups.c **** 
 1306              		.loc 1 258 14 is_stmt 0 view .LVU409
 1307 00c2 3D68     		ldr	r5, [r7]
 1308              	.LVL113:
 264:Middlewares/Third_Party/FreeRTOS/Source/event_groups.c **** 				{
 1309              		.loc 1 264 5 is_stmt 1 view .LVU410
 264:Middlewares/Third_Party/FreeRTOS/Source/event_groups.c **** 				{
 1310              		.loc 1 264 7 is_stmt 0 view .LVU411
 1311 00c4 34EA0503 		bics	r3, r4, r5
 1312 00c8 02D0     		beq	.L88
 1313              	.LVL114:
 1314              	.L82:
 270:Middlewares/Third_Party/FreeRTOS/Source/event_groups.c **** 				}
 1315              		.loc 1 270 30 is_stmt 1 view .LVU412
 273:Middlewares/Third_Party/FreeRTOS/Source/event_groups.c **** 
 1316              		.loc 1 273 4 view .LVU413
 1317 00ca FFF7FEFF 		bl	vPortExitCritical
 1318              	.LVL115:
 275:Middlewares/Third_Party/FreeRTOS/Source/event_groups.c **** 		}
 1319              		.loc 1 275 4 view .LVU414
 275:Middlewares/Third_Party/FreeRTOS/Source/event_groups.c **** 		}
 1320              		.loc 1 275 4 is_stmt 0 view .LVU415
 1321 00ce E3E7     		b	.L81
 1322              	.LVL116:
 1323              	.L88:
 266:Middlewares/Third_Party/FreeRTOS/Source/event_groups.c **** 				}
 1324              		.loc 1 266 6 is_stmt 1 view .LVU416
 266:Middlewares/Third_Party/FreeRTOS/Source/event_groups.c **** 				}
 1325              		.loc 1 266 31 is_stmt 0 view .LVU417
 1326 00d0 25EA0404 		bic	r4, r5, r4
 1327              	.LVL117:
 266:Middlewares/Third_Party/FreeRTOS/Source/event_groups.c **** 				}
 1328              		.loc 1 266 31 view .LVU418
 1329 00d4 3C60     		str	r4, [r7]
 1330 00d6 F8E7     		b	.L82
 1331              		.cfi_endproc
 1332              	.LFE6:
 1334              		.section	.text.vEventGroupSetBitsCallback,"ax",%progbits
 1335              		.align	1
 1336              		.global	vEventGroupSetBitsCallback
 1337              		.syntax unified
 1338              		.thumb
 1339              		.thumb_func
 1341              	vEventGroupSetBitsCallback:
 1342              	.LVL118:
 1343              	.LFB13:
 643:Middlewares/Third_Party/FreeRTOS/Source/event_groups.c **** 	( void ) xEventGroupSetBits( pvEventGroup, ( EventBits_t ) ulBitsToSet );
 1344              		.loc 1 643 1 is_stmt 1 view -0
 1345              		.cfi_startproc
ARM GAS  C:\Users\Abhinav\AppData\Local\Temp\cc3ESLnv.s 			page 47


 1346              		@ args = 0, pretend = 0, frame = 0
 1347              		@ frame_needed = 0, uses_anonymous_args = 0
 643:Middlewares/Third_Party/FreeRTOS/Source/event_groups.c **** 	( void ) xEventGroupSetBits( pvEventGroup, ( EventBits_t ) ulBitsToSet );
 1348              		.loc 1 643 1 is_stmt 0 view .LVU420
 1349 0000 08B5     		push	{r3, lr}
 1350              		.cfi_def_cfa_offset 8
 1351              		.cfi_offset 3, -8
 1352              		.cfi_offset 14, -4
 644:Middlewares/Third_Party/FreeRTOS/Source/event_groups.c **** }
 1353              		.loc 1 644 2 is_stmt 1 view .LVU421
 644:Middlewares/Third_Party/FreeRTOS/Source/event_groups.c **** }
 1354              		.loc 1 644 11 is_stmt 0 view .LVU422
 1355 0002 FFF7FEFF 		bl	xEventGroupSetBits
 1356              	.LVL119:
 645:Middlewares/Third_Party/FreeRTOS/Source/event_groups.c **** /*-----------------------------------------------------------*/
 1357              		.loc 1 645 1 view .LVU423
 1358 0006 08BD     		pop	{r3, pc}
 1359              		.cfi_endproc
 1360              	.LFE13:
 1362              		.section	.text.vEventGroupDelete,"ax",%progbits
 1363              		.align	1
 1364              		.global	vEventGroupDelete
 1365              		.syntax unified
 1366              		.thumb
 1367              		.thumb_func
 1369              	vEventGroupDelete:
 1370              	.LVL120:
 1371              	.LFB12:
 599:Middlewares/Third_Party/FreeRTOS/Source/event_groups.c **** EventGroup_t *pxEventBits = ( EventGroup_t * ) xEventGroup;
 1372              		.loc 1 599 1 is_stmt 1 view -0
 1373              		.cfi_startproc
 1374              		@ args = 0, pretend = 0, frame = 0
 1375              		@ frame_needed = 0, uses_anonymous_args = 0
 599:Middlewares/Third_Party/FreeRTOS/Source/event_groups.c **** EventGroup_t *pxEventBits = ( EventGroup_t * ) xEventGroup;
 1376              		.loc 1 599 1 is_stmt 0 view .LVU425
 1377 0000 10B5     		push	{r4, lr}
 1378              		.cfi_def_cfa_offset 8
 1379              		.cfi_offset 4, -8
 1380              		.cfi_offset 14, -4
 1381 0002 0446     		mov	r4, r0
 600:Middlewares/Third_Party/FreeRTOS/Source/event_groups.c **** const List_t *pxTasksWaitingForBits = &( pxEventBits->xTasksWaitingForBits );
 1382              		.loc 1 600 1 is_stmt 1 view .LVU426
 1383              	.LVL121:
 601:Middlewares/Third_Party/FreeRTOS/Source/event_groups.c **** 
 1384              		.loc 1 601 1 view .LVU427
 603:Middlewares/Third_Party/FreeRTOS/Source/event_groups.c **** 	{
 1385              		.loc 1 603 2 view .LVU428
 1386 0004 FFF7FEFF 		bl	vTaskSuspendAll
 1387              	.LVL122:
 605:Middlewares/Third_Party/FreeRTOS/Source/event_groups.c **** 
 1388              		.loc 1 605 41 view .LVU429
 607:Middlewares/Third_Party/FreeRTOS/Source/event_groups.c **** 		{
 1389              		.loc 1 607 3 view .LVU430
 1390              	.L92:
 607:Middlewares/Third_Party/FreeRTOS/Source/event_groups.c **** 		{
 1391              		.loc 1 607 59 view .LVU431
 607:Middlewares/Third_Party/FreeRTOS/Source/event_groups.c **** 		{
ARM GAS  C:\Users\Abhinav\AppData\Local\Temp\cc3ESLnv.s 			page 48


 1392              		.loc 1 607 10 is_stmt 0 view .LVU432
 1393 0008 6368     		ldr	r3, [r4, #4]
 607:Middlewares/Third_Party/FreeRTOS/Source/event_groups.c **** 		{
 1394              		.loc 1 607 59 view .LVU433
 1395 000a 93B1     		cbz	r3, .L98
 611:Middlewares/Third_Party/FreeRTOS/Source/event_groups.c **** 			vTaskRemoveFromUnorderedEventList( pxTasksWaitingForBits->xListEnd.pxNext, eventUNBLOCKED_DUE_TO
 1396              		.loc 1 611 4 is_stmt 1 view .LVU434
 1397 000c 2069     		ldr	r0, [r4, #16]
 1398 000e 04F10C03 		add	r3, r4, #12
 1399 0012 9842     		cmp	r0, r3
 1400 0014 04D0     		beq	.L99
 611:Middlewares/Third_Party/FreeRTOS/Source/event_groups.c **** 			vTaskRemoveFromUnorderedEventList( pxTasksWaitingForBits->xListEnd.pxNext, eventUNBLOCKED_DUE_TO
 1401              		.loc 1 611 121 discriminator 2 view .LVU435
 612:Middlewares/Third_Party/FreeRTOS/Source/event_groups.c **** 		}
 1402              		.loc 1 612 4 discriminator 2 view .LVU436
 1403 0016 4FF00071 		mov	r1, #33554432
 1404 001a FFF7FEFF 		bl	vTaskRemoveFromUnorderedEventList
 1405              	.LVL123:
 1406 001e F3E7     		b	.L92
 1407              	.L99:
 611:Middlewares/Third_Party/FreeRTOS/Source/event_groups.c **** 			vTaskRemoveFromUnorderedEventList( pxTasksWaitingForBits->xListEnd.pxNext, eventUNBLOCKED_DUE_TO
 1408              		.loc 1 611 4 view .LVU437
 1409              	.LBB71:
 1410              	.LBI71:
 191:Middlewares/Third_Party/FreeRTOS/Source/portable/GCC/ARM_CM3/portmacro.h **** {
 1411              		.loc 2 191 30 view .LVU438
 1412              	.LBB72:
 193:Middlewares/Third_Party/FreeRTOS/Source/portable/GCC/ARM_CM3/portmacro.h **** 
 1413              		.loc 2 193 1 view .LVU439
 195:Middlewares/Third_Party/FreeRTOS/Source/portable/GCC/ARM_CM3/portmacro.h **** 	(
 1414              		.loc 2 195 2 view .LVU440
 1415              		.syntax unified
 1416              	@ 195 "Middlewares/Third_Party/FreeRTOS/Source/portable/GCC/ARM_CM3/portmacro.h" 1
 1417 0020 4FF05003 			mov r3, #80												
 1418 0024 83F31188 		msr basepri, r3											
 1419 0028 BFF36F8F 		isb														
 1420 002c BFF34F8F 		dsb														
 1421              	
 1422              	@ 0 "" 2
 1423              	.LVL124:
 1424              		.thumb
 1425              		.syntax unified
 1426              	.L94:
 195:Middlewares/Third_Party/FreeRTOS/Source/portable/GCC/ARM_CM3/portmacro.h **** 	(
 1427              		.loc 2 195 2 is_stmt 0 view .LVU441
 1428              	.LBE72:
 1429              	.LBE71:
 611:Middlewares/Third_Party/FreeRTOS/Source/event_groups.c **** 			vTaskRemoveFromUnorderedEventList( pxTasksWaitingForBits->xListEnd.pxNext, eventUNBLOCKED_DUE_TO
 1430              		.loc 1 611 4 is_stmt 1 discriminator 1 view .LVU442
 611:Middlewares/Third_Party/FreeRTOS/Source/event_groups.c **** 			vTaskRemoveFromUnorderedEventList( pxTasksWaitingForBits->xListEnd.pxNext, eventUNBLOCKED_DUE_TO
 1431              		.loc 1 611 4 discriminator 1 view .LVU443
 1432 0030 FEE7     		b	.L94
 1433              	.L98:
 625:Middlewares/Third_Party/FreeRTOS/Source/event_groups.c **** 			{
 1434              		.loc 1 625 4 view .LVU444
 625:Middlewares/Third_Party/FreeRTOS/Source/event_groups.c **** 			{
 1435              		.loc 1 625 19 is_stmt 0 view .LVU445
ARM GAS  C:\Users\Abhinav\AppData\Local\Temp\cc3ESLnv.s 			page 49


 1436 0032 237F     		ldrb	r3, [r4, #28]	@ zero_extendqisi2
 625:Middlewares/Third_Party/FreeRTOS/Source/event_groups.c **** 			{
 1437              		.loc 1 625 6 view .LVU446
 1438 0034 13B1     		cbz	r3, .L100
 1439              	.L96:
 631:Middlewares/Third_Party/FreeRTOS/Source/event_groups.c **** 			}
 1440              		.loc 1 631 29 is_stmt 1 view .LVU447
 636:Middlewares/Third_Party/FreeRTOS/Source/event_groups.c **** }
 1441              		.loc 1 636 2 view .LVU448
 636:Middlewares/Third_Party/FreeRTOS/Source/event_groups.c **** }
 1442              		.loc 1 636 11 is_stmt 0 view .LVU449
 1443 0036 FFF7FEFF 		bl	xTaskResumeAll
 1444              	.LVL125:
 637:Middlewares/Third_Party/FreeRTOS/Source/event_groups.c **** /*-----------------------------------------------------------*/
 1445              		.loc 1 637 1 view .LVU450
 1446 003a 10BD     		pop	{r4, pc}
 1447              	.LVL126:
 1448              	.L100:
 627:Middlewares/Third_Party/FreeRTOS/Source/event_groups.c **** 			}
 1449              		.loc 1 627 5 is_stmt 1 view .LVU451
 1450 003c 2046     		mov	r0, r4
 1451 003e FFF7FEFF 		bl	vPortFree
 1452              	.LVL127:
 1453 0042 F8E7     		b	.L96
 1454              		.cfi_endproc
 1455              	.LFE12:
 1457              		.section	.text.xEventGroupSetBitsFromISR,"ax",%progbits
 1458              		.align	1
 1459              		.global	xEventGroupSetBitsFromISR
 1460              		.syntax unified
 1461              		.thumb
 1462              		.thumb_func
 1464              	xEventGroupSetBitsFromISR:
 1465              	.LVL128:
 1466              	.LFB16:
 689:Middlewares/Third_Party/FreeRTOS/Source/event_groups.c **** /*-----------------------------------------------------------*/
 690:Middlewares/Third_Party/FreeRTOS/Source/event_groups.c **** 
 691:Middlewares/Third_Party/FreeRTOS/Source/event_groups.c **** #if ( ( configUSE_TRACE_FACILITY == 1 ) && ( INCLUDE_xTimerPendFunctionCall == 1 ) && ( configUSE_T
 692:Middlewares/Third_Party/FreeRTOS/Source/event_groups.c **** 
 693:Middlewares/Third_Party/FreeRTOS/Source/event_groups.c **** 	BaseType_t xEventGroupSetBitsFromISR( EventGroupHandle_t xEventGroup, const EventBits_t uxBitsToSe
 694:Middlewares/Third_Party/FreeRTOS/Source/event_groups.c **** 	{
 1467              		.loc 1 694 2 view -0
 1468              		.cfi_startproc
 1469              		@ args = 0, pretend = 0, frame = 0
 1470              		@ frame_needed = 0, uses_anonymous_args = 0
 1471              		.loc 1 694 2 is_stmt 0 view .LVU453
 1472 0000 08B5     		push	{r3, lr}
 1473              		.cfi_def_cfa_offset 8
 1474              		.cfi_offset 3, -8
 1475              		.cfi_offset 14, -4
 1476 0002 1346     		mov	r3, r2
 695:Middlewares/Third_Party/FreeRTOS/Source/event_groups.c **** 	BaseType_t xReturn;
 1477              		.loc 1 695 2 is_stmt 1 view .LVU454
 696:Middlewares/Third_Party/FreeRTOS/Source/event_groups.c **** 
 697:Middlewares/Third_Party/FreeRTOS/Source/event_groups.c **** 		traceEVENT_GROUP_SET_BITS_FROM_ISR( xEventGroup, uxBitsToSet );
 1478              		.loc 1 697 65 view .LVU455
 698:Middlewares/Third_Party/FreeRTOS/Source/event_groups.c **** 		xReturn = xTimerPendFunctionCallFromISR( vEventGroupSetBitsCallback, ( void * ) xEventGroup, ( ui
ARM GAS  C:\Users\Abhinav\AppData\Local\Temp\cc3ESLnv.s 			page 50


 1479              		.loc 1 698 3 view .LVU456
 1480              		.loc 1 698 13 is_stmt 0 view .LVU457
 1481 0004 0A46     		mov	r2, r1
 1482              	.LVL129:
 1483              		.loc 1 698 13 view .LVU458
 1484 0006 0146     		mov	r1, r0
 1485              	.LVL130:
 1486              		.loc 1 698 13 view .LVU459
 1487 0008 0148     		ldr	r0, .L103
 1488              	.LVL131:
 1489              		.loc 1 698 13 view .LVU460
 1490 000a FFF7FEFF 		bl	xTimerPendFunctionCallFromISR
 1491              	.LVL132:
 699:Middlewares/Third_Party/FreeRTOS/Source/event_groups.c **** 
 700:Middlewares/Third_Party/FreeRTOS/Source/event_groups.c **** 		return xReturn;
 1492              		.loc 1 700 3 is_stmt 1 view .LVU461
 701:Middlewares/Third_Party/FreeRTOS/Source/event_groups.c **** 	}
 1493              		.loc 1 701 2 is_stmt 0 view .LVU462
 1494 000e 08BD     		pop	{r3, pc}
 1495              	.L104:
 1496              		.align	2
 1497              	.L103:
 1498 0010 00000000 		.word	vEventGroupSetBitsCallback
 1499              		.cfi_endproc
 1500              	.LFE16:
 1502              		.section	.text.uxEventGroupGetNumber,"ax",%progbits
 1503              		.align	1
 1504              		.global	uxEventGroupGetNumber
 1505              		.syntax unified
 1506              		.thumb
 1507              		.thumb_func
 1509              	uxEventGroupGetNumber:
 1510              	.LVL133:
 1511              	.LFB17:
 702:Middlewares/Third_Party/FreeRTOS/Source/event_groups.c **** 
 703:Middlewares/Third_Party/FreeRTOS/Source/event_groups.c **** #endif
 704:Middlewares/Third_Party/FreeRTOS/Source/event_groups.c **** /*-----------------------------------------------------------*/
 705:Middlewares/Third_Party/FreeRTOS/Source/event_groups.c **** 
 706:Middlewares/Third_Party/FreeRTOS/Source/event_groups.c **** #if (configUSE_TRACE_FACILITY == 1)
 707:Middlewares/Third_Party/FreeRTOS/Source/event_groups.c **** 
 708:Middlewares/Third_Party/FreeRTOS/Source/event_groups.c **** 	UBaseType_t uxEventGroupGetNumber( void* xEventGroup )
 709:Middlewares/Third_Party/FreeRTOS/Source/event_groups.c **** 	{
 1512              		.loc 1 709 2 is_stmt 1 view -0
 1513              		.cfi_startproc
 1514              		@ args = 0, pretend = 0, frame = 0
 1515              		@ frame_needed = 0, uses_anonymous_args = 0
 1516              		@ link register save eliminated.
 710:Middlewares/Third_Party/FreeRTOS/Source/event_groups.c **** 	UBaseType_t xReturn;
 1517              		.loc 1 710 2 view .LVU464
 711:Middlewares/Third_Party/FreeRTOS/Source/event_groups.c **** 	EventGroup_t *pxEventBits = ( EventGroup_t * ) xEventGroup;
 1518              		.loc 1 711 2 view .LVU465
 712:Middlewares/Third_Party/FreeRTOS/Source/event_groups.c **** 
 713:Middlewares/Third_Party/FreeRTOS/Source/event_groups.c **** 		if( xEventGroup == NULL )
 1519              		.loc 1 713 3 view .LVU466
 1520              		.loc 1 713 5 is_stmt 0 view .LVU467
 1521 0000 08B1     		cbz	r0, .L107
 714:Middlewares/Third_Party/FreeRTOS/Source/event_groups.c **** 		{
ARM GAS  C:\Users\Abhinav\AppData\Local\Temp\cc3ESLnv.s 			page 51


 715:Middlewares/Third_Party/FreeRTOS/Source/event_groups.c **** 			xReturn = 0;
 716:Middlewares/Third_Party/FreeRTOS/Source/event_groups.c **** 		}
 717:Middlewares/Third_Party/FreeRTOS/Source/event_groups.c **** 		else
 718:Middlewares/Third_Party/FreeRTOS/Source/event_groups.c **** 		{
 719:Middlewares/Third_Party/FreeRTOS/Source/event_groups.c **** 			xReturn = pxEventBits->uxEventGroupNumber;
 1522              		.loc 1 719 4 is_stmt 1 view .LVU468
 1523              		.loc 1 719 12 is_stmt 0 view .LVU469
 1524 0002 8069     		ldr	r0, [r0, #24]
 1525              	.LVL134:
 1526              		.loc 1 719 12 view .LVU470
 1527 0004 7047     		bx	lr
 1528              	.LVL135:
 1529              	.L107:
 715:Middlewares/Third_Party/FreeRTOS/Source/event_groups.c **** 		}
 1530              		.loc 1 715 12 view .LVU471
 1531 0006 0020     		movs	r0, #0
 1532              	.LVL136:
 720:Middlewares/Third_Party/FreeRTOS/Source/event_groups.c **** 		}
 721:Middlewares/Third_Party/FreeRTOS/Source/event_groups.c **** 
 722:Middlewares/Third_Party/FreeRTOS/Source/event_groups.c **** 		return xReturn;
 1533              		.loc 1 722 3 is_stmt 1 view .LVU472
 723:Middlewares/Third_Party/FreeRTOS/Source/event_groups.c **** 	}
 1534              		.loc 1 723 2 is_stmt 0 view .LVU473
 1535 0008 7047     		bx	lr
 1536              		.cfi_endproc
 1537              	.LFE17:
 1539              		.section	.text.vEventGroupSetNumber,"ax",%progbits
 1540              		.align	1
 1541              		.global	vEventGroupSetNumber
 1542              		.syntax unified
 1543              		.thumb
 1544              		.thumb_func
 1546              	vEventGroupSetNumber:
 1547              	.LVL137:
 1548              	.LFB18:
 724:Middlewares/Third_Party/FreeRTOS/Source/event_groups.c **** 
 725:Middlewares/Third_Party/FreeRTOS/Source/event_groups.c **** #endif /* configUSE_TRACE_FACILITY */
 726:Middlewares/Third_Party/FreeRTOS/Source/event_groups.c **** /*-----------------------------------------------------------*/
 727:Middlewares/Third_Party/FreeRTOS/Source/event_groups.c **** 
 728:Middlewares/Third_Party/FreeRTOS/Source/event_groups.c **** #if ( configUSE_TRACE_FACILITY == 1 )
 729:Middlewares/Third_Party/FreeRTOS/Source/event_groups.c **** 
 730:Middlewares/Third_Party/FreeRTOS/Source/event_groups.c **** 	void vEventGroupSetNumber( void * xEventGroup, UBaseType_t uxEventGroupNumber )
 731:Middlewares/Third_Party/FreeRTOS/Source/event_groups.c **** 	{
 1549              		.loc 1 731 2 is_stmt 1 view -0
 1550              		.cfi_startproc
 1551              		@ args = 0, pretend = 0, frame = 0
 1552              		@ frame_needed = 0, uses_anonymous_args = 0
 1553              		@ link register save eliminated.
 732:Middlewares/Third_Party/FreeRTOS/Source/event_groups.c **** 		( ( EventGroup_t * ) xEventGroup )->uxEventGroupNumber = uxEventGroupNumber;
 1554              		.loc 1 732 3 view .LVU475
 1555              		.loc 1 732 58 is_stmt 0 view .LVU476
 1556 0000 8161     		str	r1, [r0, #24]
 733:Middlewares/Third_Party/FreeRTOS/Source/event_groups.c **** 	}
 1557              		.loc 1 733 2 view .LVU477
 1558 0002 7047     		bx	lr
 1559              		.cfi_endproc
 1560              	.LFE18:
ARM GAS  C:\Users\Abhinav\AppData\Local\Temp\cc3ESLnv.s 			page 52


 1562              		.text
 1563              	.Letext0:
 1564              		.file 3 "c:\\users\\abhinav\\appdata\\roaming\\code\\user\\globalstorage\\bmd.stm32-for-vscode\\@x
 1565              		.file 4 "c:\\users\\abhinav\\appdata\\roaming\\code\\user\\globalstorage\\bmd.stm32-for-vscode\\@x
 1566              		.file 5 "c:\\users\\abhinav\\appdata\\roaming\\code\\user\\globalstorage\\bmd.stm32-for-vscode\\@x
 1567              		.file 6 "Middlewares/Third_Party/FreeRTOS/Source/include/FreeRTOS.h"
 1568              		.file 7 "Middlewares/Third_Party/FreeRTOS/Source/include/list.h"
 1569              		.file 8 "Middlewares/Third_Party/FreeRTOS/Source/include/timers.h"
 1570              		.file 9 "Middlewares/Third_Party/FreeRTOS/Source/include/event_groups.h"
 1571              		.file 10 "Middlewares/Third_Party/FreeRTOS/Source/include/portable.h"
 1572              		.file 11 "Middlewares/Third_Party/FreeRTOS/Source/include/task.h"
ARM GAS  C:\Users\Abhinav\AppData\Local\Temp\cc3ESLnv.s 			page 53

